ARM GAS  C:\Users\nm\AppData\Local\Temp\ccsZHzV2.s 			page 1


   1              		.syntax unified
   2              		.cpu cortex-m3
   3              		.fpu softvfp
   4              		.eabi_attribute 20, 1
   5              		.eabi_attribute 21, 1
   6              		.eabi_attribute 23, 3
   7              		.eabi_attribute 24, 1
   8              		.eabi_attribute 25, 1
   9              		.eabi_attribute 26, 1
  10              		.eabi_attribute 30, 1
  11              		.eabi_attribute 34, 1
  12              		.eabi_attribute 18, 4
  13              		.thumb
  14              		.file	"ADC_INT.c"
  15              		.text
  16              	.Ltext0:
  17              		.cfi_sections	.debug_frame
  18              		.section	.text.ADC_ISR1,"ax",%progbits
  19              		.align	2
  20              		.global	ADC_ISR1
  21              		.thumb
  22              		.thumb_func
  23              		.type	ADC_ISR1, %function
  24              	ADC_ISR1:
  25              	.LFB0:
  26              		.file 1 ".\\Generated_Source\\PSoC5\\ADC_INT.c"
   1:.\Generated_Source\PSoC5/ADC_INT.c **** /*******************************************************************************
   2:.\Generated_Source\PSoC5/ADC_INT.c **** * File Name: ADC_INT.c
   3:.\Generated_Source\PSoC5/ADC_INT.c **** * Version 3.20
   4:.\Generated_Source\PSoC5/ADC_INT.c **** *
   5:.\Generated_Source\PSoC5/ADC_INT.c **** * Description:
   6:.\Generated_Source\PSoC5/ADC_INT.c **** *  This file contains the code that operates during the ADC_DelSig interrupt
   7:.\Generated_Source\PSoC5/ADC_INT.c **** *  service routine.
   8:.\Generated_Source\PSoC5/ADC_INT.c **** *
   9:.\Generated_Source\PSoC5/ADC_INT.c **** * Note:
  10:.\Generated_Source\PSoC5/ADC_INT.c **** *
  11:.\Generated_Source\PSoC5/ADC_INT.c **** ********************************************************************************
  12:.\Generated_Source\PSoC5/ADC_INT.c **** * Copyright 2008-2015, Cypress Semiconductor Corporation.  All rights reserved.
  13:.\Generated_Source\PSoC5/ADC_INT.c **** * You may use this file only in accordance with the license, terms, conditions,
  14:.\Generated_Source\PSoC5/ADC_INT.c **** * disclaimers, and limitations in the end user license agreement accompanying
  15:.\Generated_Source\PSoC5/ADC_INT.c **** * the software package with which this file was provided.
  16:.\Generated_Source\PSoC5/ADC_INT.c **** *******************************************************************************/
  17:.\Generated_Source\PSoC5/ADC_INT.c **** 
  18:.\Generated_Source\PSoC5/ADC_INT.c **** #include "ADC.h"
  19:.\Generated_Source\PSoC5/ADC_INT.c **** #include "cyapicallbacks.h"
  20:.\Generated_Source\PSoC5/ADC_INT.c **** 
  21:.\Generated_Source\PSoC5/ADC_INT.c **** 
  22:.\Generated_Source\PSoC5/ADC_INT.c **** /*******************************************************************************
  23:.\Generated_Source\PSoC5/ADC_INT.c **** * Custom Declarations and Variables
  24:.\Generated_Source\PSoC5/ADC_INT.c **** * - add user include files, prototypes and variables between the following
  25:.\Generated_Source\PSoC5/ADC_INT.c **** *   #START and #END tags
  26:.\Generated_Source\PSoC5/ADC_INT.c **** *******************************************************************************/
  27:.\Generated_Source\PSoC5/ADC_INT.c **** /* `#START ADC_SYS_VAR`  */
  28:.\Generated_Source\PSoC5/ADC_INT.c **** 
  29:.\Generated_Source\PSoC5/ADC_INT.c **** /* `#END`  */
  30:.\Generated_Source\PSoC5/ADC_INT.c **** 
  31:.\Generated_Source\PSoC5/ADC_INT.c **** #if(ADC_IRQ_REMOVE == 0u)
ARM GAS  C:\Users\nm\AppData\Local\Temp\ccsZHzV2.s 			page 2


  32:.\Generated_Source\PSoC5/ADC_INT.c **** 
  33:.\Generated_Source\PSoC5/ADC_INT.c **** 
  34:.\Generated_Source\PSoC5/ADC_INT.c ****     /*****************************************************************************
  35:.\Generated_Source\PSoC5/ADC_INT.c ****     * Function Name: ADC_ISR1
  36:.\Generated_Source\PSoC5/ADC_INT.c ****     ******************************************************************************
  37:.\Generated_Source\PSoC5/ADC_INT.c ****     *
  38:.\Generated_Source\PSoC5/ADC_INT.c ****     * Summary:
  39:.\Generated_Source\PSoC5/ADC_INT.c ****     *  Handle Interrupt Service Routine.
  40:.\Generated_Source\PSoC5/ADC_INT.c ****     *
  41:.\Generated_Source\PSoC5/ADC_INT.c ****     * Parameters:
  42:.\Generated_Source\PSoC5/ADC_INT.c ****     *  None
  43:.\Generated_Source\PSoC5/ADC_INT.c ****     *
  44:.\Generated_Source\PSoC5/ADC_INT.c ****     * Return:
  45:.\Generated_Source\PSoC5/ADC_INT.c ****     *  None
  46:.\Generated_Source\PSoC5/ADC_INT.c ****     *
  47:.\Generated_Source\PSoC5/ADC_INT.c ****     * Reentrant:
  48:.\Generated_Source\PSoC5/ADC_INT.c ****     *  No
  49:.\Generated_Source\PSoC5/ADC_INT.c ****     *
  50:.\Generated_Source\PSoC5/ADC_INT.c ****     *****************************************************************************/
  51:.\Generated_Source\PSoC5/ADC_INT.c ****     CY_ISR( ADC_ISR1)
  52:.\Generated_Source\PSoC5/ADC_INT.c ****     {
  27              		.loc 1 52 0
  28              		.cfi_startproc
  29              		@ args = 0, pretend = 0, frame = 0
  30              		@ frame_needed = 0, uses_anonymous_args = 0
  31 0000 08B5     		push	{r3, lr}
  32              		.cfi_def_cfa_offset 8
  33              		.cfi_offset 3, -8
  34              		.cfi_offset 14, -4
  53:.\Generated_Source\PSoC5/ADC_INT.c ****         #ifdef ADC_ISR1_ENTRY_CALLBACK
  54:.\Generated_Source\PSoC5/ADC_INT.c ****             ADC_ISR1_EntryCallback();
  55:.\Generated_Source\PSoC5/ADC_INT.c ****         #endif /* ADC_ISR1_ENTRY_CALLBACK */
  56:.\Generated_Source\PSoC5/ADC_INT.c ****         
  57:.\Generated_Source\PSoC5/ADC_INT.c **** 
  58:.\Generated_Source\PSoC5/ADC_INT.c ****         /**************************************************************************
  59:.\Generated_Source\PSoC5/ADC_INT.c ****         *  Custom Code
  60:.\Generated_Source\PSoC5/ADC_INT.c ****         *  - add user ISR code between the following #START and #END tags
  61:.\Generated_Source\PSoC5/ADC_INT.c ****         **************************************************************************/
  62:.\Generated_Source\PSoC5/ADC_INT.c ****         /* `#START MAIN_ADC_ISR1`  */
  63:.\Generated_Source\PSoC5/ADC_INT.c **** 
  64:.\Generated_Source\PSoC5/ADC_INT.c ****         /* `#END`  */
  65:.\Generated_Source\PSoC5/ADC_INT.c ****         
  66:.\Generated_Source\PSoC5/ADC_INT.c ****         /* Stop the conversion if conversion mode is single sample and resolution
  67:.\Generated_Source\PSoC5/ADC_INT.c ****         *  is above 16 bits.
  68:.\Generated_Source\PSoC5/ADC_INT.c ****         */
  69:.\Generated_Source\PSoC5/ADC_INT.c ****         #if(ADC_CFG1_RESOLUTION > 16 && \
  70:.\Generated_Source\PSoC5/ADC_INT.c ****             ADC_CFG1_CONV_MODE == ADC_MODE_SINGLE_SAMPLE)
  71:.\Generated_Source\PSoC5/ADC_INT.c ****             ADC_StopConvert();
  35              		.loc 1 71 0
  36 0002 FFF7FEFF 		bl	ADC_StopConvert
  37              	.LVL0:
  72:.\Generated_Source\PSoC5/ADC_INT.c ****             /* Software flag for checking conversion complete or not. Will be used when
  73:.\Generated_Source\PSoC5/ADC_INT.c ****             *  resolution is above 16 bits and conversion mode is single sample 
  74:.\Generated_Source\PSoC5/ADC_INT.c **** 			*/
  75:.\Generated_Source\PSoC5/ADC_INT.c ****             ADC_convDone = ADC_DEC_CONV_DONE;
  38              		.loc 1 75 0
  39 0006 0122     		movs	r2, #1
ARM GAS  C:\Users\nm\AppData\Local\Temp\ccsZHzV2.s 			page 3


  40 0008 014B     		ldr	r3, .L3
  41 000a 1A70     		strb	r2, [r3]
  42 000c 08BD     		pop	{r3, pc}
  43              	.L4:
  44 000e 00BF     		.align	2
  45              	.L3:
  46 0010 00000000 		.word	ADC_convDone
  47              		.cfi_endproc
  48              	.LFE0:
  49              		.size	ADC_ISR1, .-ADC_ISR1
  50              		.section	.text.ADC_ISR2,"ax",%progbits
  51              		.align	2
  52              		.global	ADC_ISR2
  53              		.thumb
  54              		.thumb_func
  55              		.type	ADC_ISR2, %function
  56              	ADC_ISR2:
  57              	.LFB1:
  76:.\Generated_Source\PSoC5/ADC_INT.c ****         #endif /* Single sample conversion mode with resolution above 16 bits */
  77:.\Generated_Source\PSoC5/ADC_INT.c **** 
  78:.\Generated_Source\PSoC5/ADC_INT.c ****         #ifdef ADC_ISR1_EXIT_CALLBACK
  79:.\Generated_Source\PSoC5/ADC_INT.c ****             ADC_ISR1_ExitCallback();
  80:.\Generated_Source\PSoC5/ADC_INT.c ****         #endif /* ADC_ISR1_EXIT_CALLBACK */
  81:.\Generated_Source\PSoC5/ADC_INT.c ****     }
  82:.\Generated_Source\PSoC5/ADC_INT.c **** 
  83:.\Generated_Source\PSoC5/ADC_INT.c **** 
  84:.\Generated_Source\PSoC5/ADC_INT.c ****     /*****************************************************************************
  85:.\Generated_Source\PSoC5/ADC_INT.c ****     * Function Name: ADC_ISR2
  86:.\Generated_Source\PSoC5/ADC_INT.c ****     ******************************************************************************
  87:.\Generated_Source\PSoC5/ADC_INT.c ****     *
  88:.\Generated_Source\PSoC5/ADC_INT.c ****     * Summary:
  89:.\Generated_Source\PSoC5/ADC_INT.c ****     *  Handle Interrupt Service Routine.
  90:.\Generated_Source\PSoC5/ADC_INT.c ****     *
  91:.\Generated_Source\PSoC5/ADC_INT.c ****     * Parameters:
  92:.\Generated_Source\PSoC5/ADC_INT.c ****     *  None
  93:.\Generated_Source\PSoC5/ADC_INT.c ****     *
  94:.\Generated_Source\PSoC5/ADC_INT.c ****     * Return:
  95:.\Generated_Source\PSoC5/ADC_INT.c ****     *  None
  96:.\Generated_Source\PSoC5/ADC_INT.c ****     *
  97:.\Generated_Source\PSoC5/ADC_INT.c ****     * Reentrant:
  98:.\Generated_Source\PSoC5/ADC_INT.c ****     *  No
  99:.\Generated_Source\PSoC5/ADC_INT.c ****     *
 100:.\Generated_Source\PSoC5/ADC_INT.c ****     *****************************************************************************/
 101:.\Generated_Source\PSoC5/ADC_INT.c ****     CY_ISR( ADC_ISR2)
 102:.\Generated_Source\PSoC5/ADC_INT.c ****     {
  58              		.loc 1 102 0
  59              		.cfi_startproc
  60              		@ args = 0, pretend = 0, frame = 0
  61              		@ frame_needed = 0, uses_anonymous_args = 0
  62              		@ link register save eliminated.
  63 0000 7047     		bx	lr
  64              		.cfi_endproc
  65              	.LFE1:
  66              		.size	ADC_ISR2, .-ADC_ISR2
  67 0002 00BF     		.section	.text.ADC_ISR3,"ax",%progbits
  68              		.align	2
  69              		.global	ADC_ISR3
ARM GAS  C:\Users\nm\AppData\Local\Temp\ccsZHzV2.s 			page 4


  70              		.thumb
  71              		.thumb_func
  72              		.type	ADC_ISR3, %function
  73              	ADC_ISR3:
  74              	.LFB2:
 103:.\Generated_Source\PSoC5/ADC_INT.c ****         #ifdef ADC_ISR2_ENTRY_CALLBACK
 104:.\Generated_Source\PSoC5/ADC_INT.c ****             ADC_ISR2_EntryCallback();
 105:.\Generated_Source\PSoC5/ADC_INT.c ****         #endif /* ADC_ISR2_ENTRY_CALLBACK */
 106:.\Generated_Source\PSoC5/ADC_INT.c ****         
 107:.\Generated_Source\PSoC5/ADC_INT.c ****         
 108:.\Generated_Source\PSoC5/ADC_INT.c ****         /***************************************************************************
 109:.\Generated_Source\PSoC5/ADC_INT.c ****         *  Custom Code
 110:.\Generated_Source\PSoC5/ADC_INT.c ****         *  - add user ISR code between the following #START and #END tags
 111:.\Generated_Source\PSoC5/ADC_INT.c ****         **************************************************************************/
 112:.\Generated_Source\PSoC5/ADC_INT.c ****         /* `#START MAIN_ADC_ISR2`  */
 113:.\Generated_Source\PSoC5/ADC_INT.c **** 
 114:.\Generated_Source\PSoC5/ADC_INT.c ****         /* `#END`  */
 115:.\Generated_Source\PSoC5/ADC_INT.c **** 
 116:.\Generated_Source\PSoC5/ADC_INT.c ****         /* Stop the conversion conversion mode is single sample and resolution
 117:.\Generated_Source\PSoC5/ADC_INT.c ****         *  is above 16 bits.
 118:.\Generated_Source\PSoC5/ADC_INT.c ****         */
 119:.\Generated_Source\PSoC5/ADC_INT.c ****         #if(ADC_CFG2_RESOLUTION > 16 && \
 120:.\Generated_Source\PSoC5/ADC_INT.c ****             ADC_CFG2_CONVMODE == ADC_MODE_SINGLE_SAMPLE)
 121:.\Generated_Source\PSoC5/ADC_INT.c ****             ADC_StopConvert();
 122:.\Generated_Source\PSoC5/ADC_INT.c ****             /* Software flag for checking conversion complete or not. Will be used when
 123:.\Generated_Source\PSoC5/ADC_INT.c ****             *   resolution is above 16 bits and conversion mode is single sample 
 124:.\Generated_Source\PSoC5/ADC_INT.c **** 			*/
 125:.\Generated_Source\PSoC5/ADC_INT.c ****             ADC_convDone = ADC_DEC_CONV_DONE;
 126:.\Generated_Source\PSoC5/ADC_INT.c ****         #endif /* Single sample conversion mode with resolution above 16 bits */
 127:.\Generated_Source\PSoC5/ADC_INT.c **** 
 128:.\Generated_Source\PSoC5/ADC_INT.c ****         #ifdef ADC_ISR2_EXIT_CALLBACK
 129:.\Generated_Source\PSoC5/ADC_INT.c ****             ADC_ISR2_ExitCallback();
 130:.\Generated_Source\PSoC5/ADC_INT.c ****         #endif /* ADC_ISR2_EXIT_CALLBACK */
 131:.\Generated_Source\PSoC5/ADC_INT.c ****     }
 132:.\Generated_Source\PSoC5/ADC_INT.c **** 
 133:.\Generated_Source\PSoC5/ADC_INT.c **** 
 134:.\Generated_Source\PSoC5/ADC_INT.c ****     /*****************************************************************************
 135:.\Generated_Source\PSoC5/ADC_INT.c ****     * Function Name: ADC_ISR3
 136:.\Generated_Source\PSoC5/ADC_INT.c ****     ******************************************************************************
 137:.\Generated_Source\PSoC5/ADC_INT.c ****     *
 138:.\Generated_Source\PSoC5/ADC_INT.c ****     * Summary:
 139:.\Generated_Source\PSoC5/ADC_INT.c ****     *  Handle Interrupt Service Routine.
 140:.\Generated_Source\PSoC5/ADC_INT.c ****     *
 141:.\Generated_Source\PSoC5/ADC_INT.c ****     * Parameters:
 142:.\Generated_Source\PSoC5/ADC_INT.c ****     *  None
 143:.\Generated_Source\PSoC5/ADC_INT.c ****     *
 144:.\Generated_Source\PSoC5/ADC_INT.c ****     * Return:
 145:.\Generated_Source\PSoC5/ADC_INT.c ****     *  None
 146:.\Generated_Source\PSoC5/ADC_INT.c ****     *
 147:.\Generated_Source\PSoC5/ADC_INT.c ****     * Reentrant:
 148:.\Generated_Source\PSoC5/ADC_INT.c ****     *  No
 149:.\Generated_Source\PSoC5/ADC_INT.c ****     *
 150:.\Generated_Source\PSoC5/ADC_INT.c ****     *****************************************************************************/
 151:.\Generated_Source\PSoC5/ADC_INT.c ****     CY_ISR( ADC_ISR3)
 152:.\Generated_Source\PSoC5/ADC_INT.c ****     {
  75              		.loc 1 152 0
  76              		.cfi_startproc
ARM GAS  C:\Users\nm\AppData\Local\Temp\ccsZHzV2.s 			page 5


  77              		@ args = 0, pretend = 0, frame = 0
  78              		@ frame_needed = 0, uses_anonymous_args = 0
  79              		@ link register save eliminated.
  80 0000 7047     		bx	lr
  81              		.cfi_endproc
  82              	.LFE2:
  83              		.size	ADC_ISR3, .-ADC_ISR3
  84 0002 00BF     		.section	.text.ADC_ISR4,"ax",%progbits
  85              		.align	2
  86              		.global	ADC_ISR4
  87              		.thumb
  88              		.thumb_func
  89              		.type	ADC_ISR4, %function
  90              	ADC_ISR4:
  91              	.LFB3:
 153:.\Generated_Source\PSoC5/ADC_INT.c ****         #ifdef ADC_ISR3_ENTRY_CALLBACK
 154:.\Generated_Source\PSoC5/ADC_INT.c ****             ADC_ISR3_EntryCallback();
 155:.\Generated_Source\PSoC5/ADC_INT.c ****         #endif /* ADC_ISR3_ENTRY_CALLBACK */        
 156:.\Generated_Source\PSoC5/ADC_INT.c **** 
 157:.\Generated_Source\PSoC5/ADC_INT.c ****         
 158:.\Generated_Source\PSoC5/ADC_INT.c ****         /***************************************************************************
 159:.\Generated_Source\PSoC5/ADC_INT.c ****         *  Custom Code
 160:.\Generated_Source\PSoC5/ADC_INT.c ****         *  - add user ISR code between the following #START and #END tags
 161:.\Generated_Source\PSoC5/ADC_INT.c ****         **************************************************************************/
 162:.\Generated_Source\PSoC5/ADC_INT.c ****         /* `#START MAIN_ADC_ISR3`  */
 163:.\Generated_Source\PSoC5/ADC_INT.c **** 
 164:.\Generated_Source\PSoC5/ADC_INT.c ****         /* `#END`  */
 165:.\Generated_Source\PSoC5/ADC_INT.c ****         
 166:.\Generated_Source\PSoC5/ADC_INT.c ****         /* Stop the conversion if conversion mode is set to single sample and
 167:.\Generated_Source\PSoC5/ADC_INT.c ****         *  resolution is above 16 bits.
 168:.\Generated_Source\PSoC5/ADC_INT.c ****         */
 169:.\Generated_Source\PSoC5/ADC_INT.c ****         #if(ADC_CFG3_RESOLUTION > 16 && \
 170:.\Generated_Source\PSoC5/ADC_INT.c ****             ADC_CFG3_CONVMODE == ADC_MODE_SINGLE_SAMPLE)
 171:.\Generated_Source\PSoC5/ADC_INT.c ****             ADC_StopConvert();
 172:.\Generated_Source\PSoC5/ADC_INT.c ****             /* Software flag for checking conversion complete or not. Will be used when
 173:.\Generated_Source\PSoC5/ADC_INT.c ****             *  resolution is above 16 bits and conversion mode is single sample 
 174:.\Generated_Source\PSoC5/ADC_INT.c **** 			*/
 175:.\Generated_Source\PSoC5/ADC_INT.c ****             ADC_convDone = ADC_DEC_CONV_DONE;
 176:.\Generated_Source\PSoC5/ADC_INT.c ****         #endif /* Single sample conversion mode with resolution above 16 bits */
 177:.\Generated_Source\PSoC5/ADC_INT.c **** 
 178:.\Generated_Source\PSoC5/ADC_INT.c ****         #ifdef ADC_ISR3_EXIT_CALLBACK
 179:.\Generated_Source\PSoC5/ADC_INT.c ****             ADC_ISR3_ExitCallback();
 180:.\Generated_Source\PSoC5/ADC_INT.c ****         #endif /* ADC_ISR3_EXIT_CALLBACK */        
 181:.\Generated_Source\PSoC5/ADC_INT.c ****     }
 182:.\Generated_Source\PSoC5/ADC_INT.c **** 
 183:.\Generated_Source\PSoC5/ADC_INT.c **** 
 184:.\Generated_Source\PSoC5/ADC_INT.c ****     /*****************************************************************************
 185:.\Generated_Source\PSoC5/ADC_INT.c ****     * Function Name: ADC_ISR4
 186:.\Generated_Source\PSoC5/ADC_INT.c ****     ******************************************************************************
 187:.\Generated_Source\PSoC5/ADC_INT.c ****     *
 188:.\Generated_Source\PSoC5/ADC_INT.c ****     * Summary:
 189:.\Generated_Source\PSoC5/ADC_INT.c ****     *  Handle Interrupt Service Routine.
 190:.\Generated_Source\PSoC5/ADC_INT.c ****     *
 191:.\Generated_Source\PSoC5/ADC_INT.c ****     * Parameters:
 192:.\Generated_Source\PSoC5/ADC_INT.c ****     *  None
 193:.\Generated_Source\PSoC5/ADC_INT.c ****     *
 194:.\Generated_Source\PSoC5/ADC_INT.c ****     * Return:
ARM GAS  C:\Users\nm\AppData\Local\Temp\ccsZHzV2.s 			page 6


 195:.\Generated_Source\PSoC5/ADC_INT.c ****     *  None
 196:.\Generated_Source\PSoC5/ADC_INT.c ****     *
 197:.\Generated_Source\PSoC5/ADC_INT.c ****     * Reentrant:
 198:.\Generated_Source\PSoC5/ADC_INT.c ****     *  No
 199:.\Generated_Source\PSoC5/ADC_INT.c ****     *
 200:.\Generated_Source\PSoC5/ADC_INT.c ****     *****************************************************************************/
 201:.\Generated_Source\PSoC5/ADC_INT.c ****     CY_ISR( ADC_ISR4)
 202:.\Generated_Source\PSoC5/ADC_INT.c ****     {
  92              		.loc 1 202 0
  93              		.cfi_startproc
  94              		@ args = 0, pretend = 0, frame = 0
  95              		@ frame_needed = 0, uses_anonymous_args = 0
  96              		@ link register save eliminated.
  97 0000 7047     		bx	lr
  98              		.cfi_endproc
  99              	.LFE3:
 100              		.size	ADC_ISR4, .-ADC_ISR4
 101 0002 00BF     		.text
 102              	.Letext0:
 103              		.file 2 ".\\Generated_Source\\PSoC5\\cytypes.h"
 104              		.file 3 ".\\Generated_Source\\PSoC5\\ADC.h"