ARM GAS  C:\Users\nm\AppData\Local\Temp\ccOgejcg.s 			page 1


   1              		.syntax unified
   2              		.cpu cortex-m3
   3              		.fpu softvfp
   4              		.eabi_attribute 20, 1
   5              		.eabi_attribute 21, 1
   6              		.eabi_attribute 23, 3
   7              		.eabi_attribute 24, 1
   8              		.eabi_attribute 25, 1
   9              		.eabi_attribute 26, 1
  10              		.eabi_attribute 30, 1
  11              		.eabi_attribute 34, 1
  12              		.eabi_attribute 18, 4
  13              		.thumb
  14              		.file	"AMux.c"
  15              		.text
  16              	.Ltext0:
  17              		.cfi_sections	.debug_frame
  18              		.section	.text.AMux_Start,"ax",%progbits
  19              		.align	2
  20              		.global	AMux_Start
  21              		.thumb
  22              		.thumb_func
  23              		.type	AMux_Start, %function
  24              	AMux_Start:
  25              	.LFB0:
  26              		.file 1 ".\\Generated_Source\\PSoC5\\AMux.c"
   1:.\Generated_Source\PSoC5/AMux.c **** /*******************************************************************************
   2:.\Generated_Source\PSoC5/AMux.c **** * File Name: AMux.c
   3:.\Generated_Source\PSoC5/AMux.c **** * Version 1.80
   4:.\Generated_Source\PSoC5/AMux.c **** *
   5:.\Generated_Source\PSoC5/AMux.c **** *  Description:
   6:.\Generated_Source\PSoC5/AMux.c **** *    This file contains all functions required for the analog multiplexer
   7:.\Generated_Source\PSoC5/AMux.c **** *    AMux User Module.
   8:.\Generated_Source\PSoC5/AMux.c **** *
   9:.\Generated_Source\PSoC5/AMux.c **** *   Note:
  10:.\Generated_Source\PSoC5/AMux.c **** *
  11:.\Generated_Source\PSoC5/AMux.c **** *******************************************************************************
  12:.\Generated_Source\PSoC5/AMux.c **** * Copyright 2008-2010, Cypress Semiconductor Corporation.  All rights reserved.
  13:.\Generated_Source\PSoC5/AMux.c **** * You may use this file only in accordance with the license, terms, conditions, 
  14:.\Generated_Source\PSoC5/AMux.c **** * disclaimers, and limitations in the end user license agreement accompanying 
  15:.\Generated_Source\PSoC5/AMux.c **** * the software package with which this file was provided.
  16:.\Generated_Source\PSoC5/AMux.c **** ********************************************************************************/
  17:.\Generated_Source\PSoC5/AMux.c **** 
  18:.\Generated_Source\PSoC5/AMux.c **** #include "AMux.h"
  19:.\Generated_Source\PSoC5/AMux.c **** 
  20:.\Generated_Source\PSoC5/AMux.c **** static uint8 AMux_lastChannel = AMux_NULL_CHANNEL;
  21:.\Generated_Source\PSoC5/AMux.c **** 
  22:.\Generated_Source\PSoC5/AMux.c **** 
  23:.\Generated_Source\PSoC5/AMux.c **** /*******************************************************************************
  24:.\Generated_Source\PSoC5/AMux.c **** * Function Name: AMux_Start
  25:.\Generated_Source\PSoC5/AMux.c **** ********************************************************************************
  26:.\Generated_Source\PSoC5/AMux.c **** * Summary:
  27:.\Generated_Source\PSoC5/AMux.c **** *  Disconnect all channels.
  28:.\Generated_Source\PSoC5/AMux.c **** *
  29:.\Generated_Source\PSoC5/AMux.c **** * Parameters:
  30:.\Generated_Source\PSoC5/AMux.c **** *  void
  31:.\Generated_Source\PSoC5/AMux.c **** *
ARM GAS  C:\Users\nm\AppData\Local\Temp\ccOgejcg.s 			page 2


  32:.\Generated_Source\PSoC5/AMux.c **** * Return:
  33:.\Generated_Source\PSoC5/AMux.c **** *  void
  34:.\Generated_Source\PSoC5/AMux.c **** *
  35:.\Generated_Source\PSoC5/AMux.c **** *******************************************************************************/
  36:.\Generated_Source\PSoC5/AMux.c **** void AMux_Start(void) 
  37:.\Generated_Source\PSoC5/AMux.c **** {
  27              		.loc 1 37 0
  28              		.cfi_startproc
  29              		@ args = 0, pretend = 0, frame = 0
  30              		@ frame_needed = 0, uses_anonymous_args = 0
  31 0000 10B5     		push	{r4, lr}
  32              		.cfi_def_cfa_offset 8
  33              		.cfi_offset 4, -8
  34              		.cfi_offset 14, -4
  35              	.LVL0:
  38:.\Generated_Source\PSoC5/AMux.c ****     uint8 chan;
  39:.\Generated_Source\PSoC5/AMux.c **** 
  40:.\Generated_Source\PSoC5/AMux.c ****     for(chan = 0u; chan < AMux_CHANNELS ; chan++)
  36              		.loc 1 40 0
  37 0002 0024     		movs	r4, #0
  38 0004 07E0     		b	.L2
  39              	.LVL1:
  40              	.L3:
  41:.\Generated_Source\PSoC5/AMux.c ****     {
  42:.\Generated_Source\PSoC5/AMux.c **** #if (AMux_MUXTYPE == AMux_MUX_SINGLE)
  43:.\Generated_Source\PSoC5/AMux.c ****         AMux_Unset(chan);
  44:.\Generated_Source\PSoC5/AMux.c **** #else
  45:.\Generated_Source\PSoC5/AMux.c ****         AMux_CYAMUXSIDE_A_Unset(chan);
  41              		.loc 1 45 0 discriminator 3
  42 0006 2046     		mov	r0, r4
  43 0008 FFF7FEFF 		bl	AMux_CYAMUXSIDE_A_Unset
  44              	.LVL2:
  46:.\Generated_Source\PSoC5/AMux.c ****         AMux_CYAMUXSIDE_B_Unset(chan);
  45              		.loc 1 46 0 discriminator 3
  46 000c 2046     		mov	r0, r4
  47 000e FFF7FEFF 		bl	AMux_CYAMUXSIDE_B_Unset
  48              	.LVL3:
  40:.\Generated_Source\PSoC5/AMux.c ****     {
  49              		.loc 1 40 0 discriminator 3
  50 0012 0134     		adds	r4, r4, #1
  51              	.LVL4:
  52 0014 E4B2     		uxtb	r4, r4
  53              	.LVL5:
  54              	.L2:
  40:.\Generated_Source\PSoC5/AMux.c ****     {
  55              		.loc 1 40 0 is_stmt 0 discriminator 1
  56 0016 012C     		cmp	r4, #1
  57 0018 F5D9     		bls	.L3
  47:.\Generated_Source\PSoC5/AMux.c **** #endif
  48:.\Generated_Source\PSoC5/AMux.c ****     }
  49:.\Generated_Source\PSoC5/AMux.c **** 
  50:.\Generated_Source\PSoC5/AMux.c ****     AMux_lastChannel = AMux_NULL_CHANNEL;
  58              		.loc 1 50 0 is_stmt 1
  59 001a FF22     		movs	r2, #255
  60 001c 014B     		ldr	r3, .L5
  61 001e 1A70     		strb	r2, [r3]
  62 0020 10BD     		pop	{r4, pc}
ARM GAS  C:\Users\nm\AppData\Local\Temp\ccOgejcg.s 			page 3


  63              	.LVL6:
  64              	.L6:
  65 0022 00BF     		.align	2
  66              	.L5:
  67 0024 00000000 		.word	.LANCHOR0
  68              		.cfi_endproc
  69              	.LFE0:
  70              		.size	AMux_Start, .-AMux_Start
  71              		.section	.text.AMux_Connect,"ax",%progbits
  72              		.align	2
  73              		.global	AMux_Connect
  74              		.thumb
  75              		.thumb_func
  76              		.type	AMux_Connect, %function
  77              	AMux_Connect:
  78              	.LFB3:
  51:.\Generated_Source\PSoC5/AMux.c **** }
  52:.\Generated_Source\PSoC5/AMux.c **** 
  53:.\Generated_Source\PSoC5/AMux.c **** 
  54:.\Generated_Source\PSoC5/AMux.c **** #if (!AMux_ATMOSTONE)
  55:.\Generated_Source\PSoC5/AMux.c **** /*******************************************************************************
  56:.\Generated_Source\PSoC5/AMux.c **** * Function Name: AMux_Select
  57:.\Generated_Source\PSoC5/AMux.c **** ********************************************************************************
  58:.\Generated_Source\PSoC5/AMux.c **** * Summary:
  59:.\Generated_Source\PSoC5/AMux.c **** *  This functions first disconnects all channels then connects the given
  60:.\Generated_Source\PSoC5/AMux.c **** *  channel.
  61:.\Generated_Source\PSoC5/AMux.c **** *
  62:.\Generated_Source\PSoC5/AMux.c **** * Parameters:
  63:.\Generated_Source\PSoC5/AMux.c **** *  channel:  The channel to connect to the common terminal.
  64:.\Generated_Source\PSoC5/AMux.c **** *
  65:.\Generated_Source\PSoC5/AMux.c **** * Return:
  66:.\Generated_Source\PSoC5/AMux.c **** *  void
  67:.\Generated_Source\PSoC5/AMux.c **** *
  68:.\Generated_Source\PSoC5/AMux.c **** *******************************************************************************/
  69:.\Generated_Source\PSoC5/AMux.c **** void AMux_Select(uint8 channel) 
  70:.\Generated_Source\PSoC5/AMux.c **** {
  71:.\Generated_Source\PSoC5/AMux.c ****     AMux_DisconnectAll();        /* Disconnect all previous connections */
  72:.\Generated_Source\PSoC5/AMux.c ****     AMux_Connect(channel);       /* Make the given selection */
  73:.\Generated_Source\PSoC5/AMux.c ****     AMux_lastChannel = channel;  /* Update last channel */
  74:.\Generated_Source\PSoC5/AMux.c **** }
  75:.\Generated_Source\PSoC5/AMux.c **** #endif
  76:.\Generated_Source\PSoC5/AMux.c **** 
  77:.\Generated_Source\PSoC5/AMux.c **** 
  78:.\Generated_Source\PSoC5/AMux.c **** /*******************************************************************************
  79:.\Generated_Source\PSoC5/AMux.c **** * Function Name: AMux_FastSelect
  80:.\Generated_Source\PSoC5/AMux.c **** ********************************************************************************
  81:.\Generated_Source\PSoC5/AMux.c **** * Summary:
  82:.\Generated_Source\PSoC5/AMux.c **** *  This function first disconnects the last connection made with FastSelect or
  83:.\Generated_Source\PSoC5/AMux.c **** *  Select, then connects the given channel. The FastSelect function is similar
  84:.\Generated_Source\PSoC5/AMux.c **** *  to the Select function, except it is faster since it only disconnects the
  85:.\Generated_Source\PSoC5/AMux.c **** *  last channel selected rather than all channels.
  86:.\Generated_Source\PSoC5/AMux.c **** *
  87:.\Generated_Source\PSoC5/AMux.c **** * Parameters:
  88:.\Generated_Source\PSoC5/AMux.c **** *  channel:  The channel to connect to the common terminal.
  89:.\Generated_Source\PSoC5/AMux.c **** *
  90:.\Generated_Source\PSoC5/AMux.c **** * Return:
  91:.\Generated_Source\PSoC5/AMux.c **** *  void
ARM GAS  C:\Users\nm\AppData\Local\Temp\ccOgejcg.s 			page 4


  92:.\Generated_Source\PSoC5/AMux.c **** *
  93:.\Generated_Source\PSoC5/AMux.c **** *******************************************************************************/
  94:.\Generated_Source\PSoC5/AMux.c **** void AMux_FastSelect(uint8 channel) 
  95:.\Generated_Source\PSoC5/AMux.c **** {
  96:.\Generated_Source\PSoC5/AMux.c ****     /* Disconnect the last valid channel */
  97:.\Generated_Source\PSoC5/AMux.c ****     if( AMux_lastChannel != AMux_NULL_CHANNEL)
  98:.\Generated_Source\PSoC5/AMux.c ****     {
  99:.\Generated_Source\PSoC5/AMux.c ****         AMux_Disconnect(AMux_lastChannel);
 100:.\Generated_Source\PSoC5/AMux.c ****     }
 101:.\Generated_Source\PSoC5/AMux.c **** 
 102:.\Generated_Source\PSoC5/AMux.c ****     /* Make the new channel connection */
 103:.\Generated_Source\PSoC5/AMux.c **** #if (AMux_MUXTYPE == AMux_MUX_SINGLE)
 104:.\Generated_Source\PSoC5/AMux.c ****     AMux_Set(channel);
 105:.\Generated_Source\PSoC5/AMux.c **** #else
 106:.\Generated_Source\PSoC5/AMux.c ****     AMux_CYAMUXSIDE_A_Set(channel);
 107:.\Generated_Source\PSoC5/AMux.c ****     AMux_CYAMUXSIDE_B_Set(channel);
 108:.\Generated_Source\PSoC5/AMux.c **** #endif
 109:.\Generated_Source\PSoC5/AMux.c **** 
 110:.\Generated_Source\PSoC5/AMux.c **** 
 111:.\Generated_Source\PSoC5/AMux.c ****     AMux_lastChannel = channel;   /* Update last channel */
 112:.\Generated_Source\PSoC5/AMux.c **** }
 113:.\Generated_Source\PSoC5/AMux.c **** 
 114:.\Generated_Source\PSoC5/AMux.c **** 
 115:.\Generated_Source\PSoC5/AMux.c **** #if (AMux_MUXTYPE == AMux_MUX_DIFF)
 116:.\Generated_Source\PSoC5/AMux.c **** #if (!AMux_ATMOSTONE)
 117:.\Generated_Source\PSoC5/AMux.c **** /*******************************************************************************
 118:.\Generated_Source\PSoC5/AMux.c **** * Function Name: AMux_Connect
 119:.\Generated_Source\PSoC5/AMux.c **** ********************************************************************************
 120:.\Generated_Source\PSoC5/AMux.c **** * Summary:
 121:.\Generated_Source\PSoC5/AMux.c **** *  This function connects the given channel without affecting other connections.
 122:.\Generated_Source\PSoC5/AMux.c **** *
 123:.\Generated_Source\PSoC5/AMux.c **** * Parameters:
 124:.\Generated_Source\PSoC5/AMux.c **** *  channel:  The channel to connect to the common terminal.
 125:.\Generated_Source\PSoC5/AMux.c **** *
 126:.\Generated_Source\PSoC5/AMux.c **** * Return:
 127:.\Generated_Source\PSoC5/AMux.c **** *  void
 128:.\Generated_Source\PSoC5/AMux.c **** *
 129:.\Generated_Source\PSoC5/AMux.c **** *******************************************************************************/
 130:.\Generated_Source\PSoC5/AMux.c **** void AMux_Connect(uint8 channel) 
 131:.\Generated_Source\PSoC5/AMux.c **** {
  79              		.loc 1 131 0
  80              		.cfi_startproc
  81              		@ args = 0, pretend = 0, frame = 0
  82              		@ frame_needed = 0, uses_anonymous_args = 0
  83              	.LVL7:
  84 0000 10B5     		push	{r4, lr}
  85              		.cfi_def_cfa_offset 8
  86              		.cfi_offset 4, -8
  87              		.cfi_offset 14, -4
  88 0002 0446     		mov	r4, r0
 132:.\Generated_Source\PSoC5/AMux.c ****     AMux_CYAMUXSIDE_A_Set(channel);
  89              		.loc 1 132 0
  90 0004 FFF7FEFF 		bl	AMux_CYAMUXSIDE_A_Set
  91              	.LVL8:
 133:.\Generated_Source\PSoC5/AMux.c ****     AMux_CYAMUXSIDE_B_Set(channel);
  92              		.loc 1 133 0
  93 0008 2046     		mov	r0, r4
ARM GAS  C:\Users\nm\AppData\Local\Temp\ccOgejcg.s 			page 5


  94 000a FFF7FEFF 		bl	AMux_CYAMUXSIDE_B_Set
  95              	.LVL9:
  96 000e 10BD     		pop	{r4, pc}
  97              		.cfi_endproc
  98              	.LFE3:
  99              		.size	AMux_Connect, .-AMux_Connect
 100              		.section	.text.AMux_Select,"ax",%progbits
 101              		.align	2
 102              		.global	AMux_Select
 103              		.thumb
 104              		.thumb_func
 105              		.type	AMux_Select, %function
 106              	AMux_Select:
 107              	.LFB1:
  70:.\Generated_Source\PSoC5/AMux.c ****     AMux_DisconnectAll();        /* Disconnect all previous connections */
 108              		.loc 1 70 0
 109              		.cfi_startproc
 110              		@ args = 0, pretend = 0, frame = 0
 111              		@ frame_needed = 0, uses_anonymous_args = 0
 112              	.LVL10:
 113 0000 10B5     		push	{r4, lr}
 114              		.cfi_def_cfa_offset 8
 115              		.cfi_offset 4, -8
 116              		.cfi_offset 14, -4
 117 0002 0446     		mov	r4, r0
  71:.\Generated_Source\PSoC5/AMux.c ****     AMux_Connect(channel);       /* Make the given selection */
 118              		.loc 1 71 0
 119 0004 FFF7FEFF 		bl	AMux_Start
 120              	.LVL11:
  72:.\Generated_Source\PSoC5/AMux.c ****     AMux_lastChannel = channel;  /* Update last channel */
 121              		.loc 1 72 0
 122 0008 2046     		mov	r0, r4
 123 000a FFF7FEFF 		bl	AMux_Connect
 124              	.LVL12:
  73:.\Generated_Source\PSoC5/AMux.c **** }
 125              		.loc 1 73 0
 126 000e 014B     		ldr	r3, .L11
 127 0010 1C70     		strb	r4, [r3]
 128 0012 10BD     		pop	{r4, pc}
 129              	.L12:
 130              		.align	2
 131              	.L11:
 132 0014 00000000 		.word	.LANCHOR0
 133              		.cfi_endproc
 134              	.LFE1:
 135              		.size	AMux_Select, .-AMux_Select
 136              		.section	.text.AMux_Disconnect,"ax",%progbits
 137              		.align	2
 138              		.global	AMux_Disconnect
 139              		.thumb
 140              		.thumb_func
 141              		.type	AMux_Disconnect, %function
 142              	AMux_Disconnect:
 143              	.LFB4:
 134:.\Generated_Source\PSoC5/AMux.c **** }
 135:.\Generated_Source\PSoC5/AMux.c **** #endif
 136:.\Generated_Source\PSoC5/AMux.c **** 
ARM GAS  C:\Users\nm\AppData\Local\Temp\ccOgejcg.s 			page 6


 137:.\Generated_Source\PSoC5/AMux.c **** /*******************************************************************************
 138:.\Generated_Source\PSoC5/AMux.c **** * Function Name: AMux_Disconnect
 139:.\Generated_Source\PSoC5/AMux.c **** ********************************************************************************
 140:.\Generated_Source\PSoC5/AMux.c **** * Summary:
 141:.\Generated_Source\PSoC5/AMux.c **** *  This function disconnects the given channel from the common or output
 142:.\Generated_Source\PSoC5/AMux.c **** *  terminal without affecting other connections.
 143:.\Generated_Source\PSoC5/AMux.c **** *
 144:.\Generated_Source\PSoC5/AMux.c **** * Parameters:
 145:.\Generated_Source\PSoC5/AMux.c **** *  channel:  The channel to disconnect from the common terminal.
 146:.\Generated_Source\PSoC5/AMux.c **** *
 147:.\Generated_Source\PSoC5/AMux.c **** * Return:
 148:.\Generated_Source\PSoC5/AMux.c **** *  void
 149:.\Generated_Source\PSoC5/AMux.c **** *
 150:.\Generated_Source\PSoC5/AMux.c **** *******************************************************************************/
 151:.\Generated_Source\PSoC5/AMux.c **** void AMux_Disconnect(uint8 channel) 
 152:.\Generated_Source\PSoC5/AMux.c **** {
 144              		.loc 1 152 0
 145              		.cfi_startproc
 146              		@ args = 0, pretend = 0, frame = 0
 147              		@ frame_needed = 0, uses_anonymous_args = 0
 148              	.LVL13:
 149 0000 10B5     		push	{r4, lr}
 150              		.cfi_def_cfa_offset 8
 151              		.cfi_offset 4, -8
 152              		.cfi_offset 14, -4
 153 0002 0446     		mov	r4, r0
 153:.\Generated_Source\PSoC5/AMux.c ****     AMux_CYAMUXSIDE_A_Unset(channel);
 154              		.loc 1 153 0
 155 0004 FFF7FEFF 		bl	AMux_CYAMUXSIDE_A_Unset
 156              	.LVL14:
 154:.\Generated_Source\PSoC5/AMux.c ****     AMux_CYAMUXSIDE_B_Unset(channel);
 157              		.loc 1 154 0
 158 0008 2046     		mov	r0, r4
 159 000a FFF7FEFF 		bl	AMux_CYAMUXSIDE_B_Unset
 160              	.LVL15:
 161 000e 10BD     		pop	{r4, pc}
 162              		.cfi_endproc
 163              	.LFE4:
 164              		.size	AMux_Disconnect, .-AMux_Disconnect
 165              		.section	.text.AMux_FastSelect,"ax",%progbits
 166              		.align	2
 167              		.global	AMux_FastSelect
 168              		.thumb
 169              		.thumb_func
 170              		.type	AMux_FastSelect, %function
 171              	AMux_FastSelect:
 172              	.LFB2:
  95:.\Generated_Source\PSoC5/AMux.c ****     /* Disconnect the last valid channel */
 173              		.loc 1 95 0
 174              		.cfi_startproc
 175              		@ args = 0, pretend = 0, frame = 0
 176              		@ frame_needed = 0, uses_anonymous_args = 0
 177              	.LVL16:
 178 0000 10B5     		push	{r4, lr}
 179              		.cfi_def_cfa_offset 8
 180              		.cfi_offset 4, -8
 181              		.cfi_offset 14, -4
ARM GAS  C:\Users\nm\AppData\Local\Temp\ccOgejcg.s 			page 7


 182 0002 0446     		mov	r4, r0
  97:.\Generated_Source\PSoC5/AMux.c ****     {
 183              		.loc 1 97 0
 184 0004 074B     		ldr	r3, .L18
 185 0006 1878     		ldrb	r0, [r3]	@ zero_extendqisi2
 186              	.LVL17:
 187 0008 FF28     		cmp	r0, #255
 188 000a 01D0     		beq	.L16
  99:.\Generated_Source\PSoC5/AMux.c ****     }
 189              		.loc 1 99 0
 190 000c FFF7FEFF 		bl	AMux_Disconnect
 191              	.LVL18:
 192              	.L16:
 106:.\Generated_Source\PSoC5/AMux.c ****     AMux_CYAMUXSIDE_B_Set(channel);
 193              		.loc 1 106 0
 194 0010 2046     		mov	r0, r4
 195 0012 FFF7FEFF 		bl	AMux_CYAMUXSIDE_A_Set
 196              	.LVL19:
 107:.\Generated_Source\PSoC5/AMux.c **** #endif
 197              		.loc 1 107 0
 198 0016 2046     		mov	r0, r4
 199 0018 FFF7FEFF 		bl	AMux_CYAMUXSIDE_B_Set
 200              	.LVL20:
 111:.\Generated_Source\PSoC5/AMux.c **** }
 201              		.loc 1 111 0
 202 001c 014B     		ldr	r3, .L18
 203 001e 1C70     		strb	r4, [r3]
 204 0020 10BD     		pop	{r4, pc}
 205              	.L19:
 206 0022 00BF     		.align	2
 207              	.L18:
 208 0024 00000000 		.word	.LANCHOR0
 209              		.cfi_endproc
 210              	.LFE2:
 211              		.size	AMux_FastSelect, .-AMux_FastSelect
 212              		.data
 213              		.set	.LANCHOR0,. + 0
 214              		.type	AMux_lastChannel, %object
 215              		.size	AMux_lastChannel, 1
 216              	AMux_lastChannel:
 217 0000 FF       		.byte	-1
 218              		.text
 219              	.Letext0:
 220              		.file 2 ".\\Generated_Source\\PSoC5\\cyfitter_cfg.h"
 221              		.file 3 ".\\Generated_Source\\PSoC5\\cytypes.h"