ARM GAS  C:\Users\nm\AppData\Local\Temp\cc1nXjze.s 			page 1


   1              		.syntax unified
   2              		.cpu cortex-m3
   3              		.fpu softvfp
   4              		.eabi_attribute 20, 1
   5              		.eabi_attribute 21, 1
   6              		.eabi_attribute 23, 3
   7              		.eabi_attribute 24, 1
   8              		.eabi_attribute 25, 1
   9              		.eabi_attribute 26, 1
  10              		.eabi_attribute 30, 1
  11              		.eabi_attribute 34, 1
  12              		.eabi_attribute 18, 4
  13              		.thumb
  14              		.file	"main.c"
  15              		.text
  16              	.Ltext0:
  17              		.cfi_sections	.debug_frame
  18              		.section	.text.main,"ax",%progbits
  19              		.align	2
  20              		.global	main
  21              		.thumb
  22              		.thumb_func
  23              		.type	main, %function
  24              	main:
  25              	.LFB63:
  26              		.file 1 ".\\main.c"
   1:.\main.c      **** /*****************************************************************************
   2:.\main.c      **** * File Name: main.c
   3:.\main.c      **** *
   4:.\main.c      **** * Version: 3.0
   5:.\main.c      **** *
   6:.\main.c      **** * Description:
   7:.\main.c      **** *   The main C file for the Temperature measurement with Energus Temp Sensor project. 
   8:.\main.c      **** * 
   9:.\main.c      **** * Note:
  10:.\main.c      **** ******************************************************************************
  11:.\main.c      **** * VTM17
  12:.\main.c      **** * Neil Moloney
  13:.\main.c      **** ******************************************************************************
  14:.\main.c      **** * This software is based on software owned by Cypress Semiconductor Corporation (Cypress) and is
  15:.\main.c      **** * protected by and subject to worldwide patent protection (United States and
  16:.\main.c      **** * foreign), United States copyright laws and international treaty provisions.
  17:.\main.c      **** * Cypress hereby grants to licensee a personal, non-exclusive, non-transferable
  18:.\main.c      **** * license to copy, use, modify, create derivative works of, and compile the
  19:.\main.c      **** * Cypress Source Code and derivative works for the sole purpose of creating
  20:.\main.c      **** * custom software in support of licensee product to be used only in conjunction
  21:.\main.c      **** * with a Cypress integrated circuit as specified in the applicable agreement.
  22:.\main.c      **** * Any reproduction, modification, translation, compilation, or representation of
  23:.\main.c      **** * this software except as specified above is prohibited without the express
  24:.\main.c      **** * written permission of Cypress.
  25:.\main.c      **** *****************************************************************************/
  26:.\main.c      **** #include <device.h>
  27:.\main.c      **** #include "measurement.h"
  28:.\main.c      **** #include <stdio.h>
  29:.\main.c      **** 
  30:.\main.c      **** #define RELAY_ON 1u
  31:.\main.c      **** #define RELAY_OFF 0u
ARM GAS  C:\Users\nm\AppData\Local\Temp\cc1nXjze.s 			page 2


  32:.\main.c      **** 	
  33:.\main.c      **** int main(void)
  34:.\main.c      **** {
  27              		.loc 1 34 0
  28              		.cfi_startproc
  29              		@ args = 0, pretend = 0, frame = 0
  30              		@ frame_needed = 0, uses_anonymous_args = 0
  31 0000 38B5     		push	{r3, r4, r5, lr}
  32              		.cfi_def_cfa_offset 16
  33              		.cfi_offset 3, -16
  34              		.cfi_offset 4, -12
  35              		.cfi_offset 5, -8
  36              		.cfi_offset 14, -4
  37              	.LVL0:
  35:.\main.c      ****     // Local Variables
  36:.\main.c      ****     int numAdcChannels = 2; // set to 10 for checking the measurement function 
  37:.\main.c      ****     int i = 0;
  38:.\main.c      ****     uint16 center = 0x5A; //this will be the address in EEPROM to start searching from ~ around roo
  39:.\main.c      ****     int32 vCenter = (EEPROM_1_ReadByte(0x5A) << 8) + EEPROM_1_ReadByte(0x5B);
  38              		.loc 1 39 0
  39 0002 5A20     		movs	r0, #90
  40 0004 FFF7FEFF 		bl	EEPROM_1_ReadByte
  41              	.LVL1:
  42 0008 5B20     		movs	r0, #91
  43 000a FFF7FEFF 		bl	EEPROM_1_ReadByte
  44              	.LVL2:
  40:.\main.c      ****     int32 vCompare;
  41:.\main.c      ****     uint adr = 0;
  42:.\main.c      ****     int vmin = 1450; //centivolts; used for range checking
  43:.\main.c      ****     int vmax = 2350; //centivolts; used for range checking
  44:.\main.c      ****     int vHighTemp = 1550; //centivolts; set to 55 deg C for testing. TODO: include a chart with tem
  45:.\main.c      ****     
  46:.\main.c      **** 	/* Voltages across reference resistor and thermistor*/
  47:.\main.c      **** 	int16 vSense[numAdcChannels];
  48:.\main.c      **** 	
  49:.\main.c      **** 	/* Temperature value in 100ths of a degree C*/
  50:.\main.c      **** 	int16 iTemp[numAdcChannels];
  51:.\main.c      ****     
  52:.\main.c      ****     /*Decimal Temp*/
  53:.\main.c      ****     int32 decTemp[numAdcChannels];
  54:.\main.c      **** 	
  55:.\main.c      **** 	/* Dispaly format string */
  56:.\main.c      **** 	char printBuf[16]={'\0'};
  57:.\main.c      **** 
  58:.\main.c      **** 	/*Enable global interrupts*/
  59:.\main.c      **** 	CYGlobalIntEnable; 
  45              		.loc 1 59 0
  46              	@ 59 ".\main.c" 1
  47 000e 62B6     		CPSIE   i
  48              	@ 0 "" 2
  60:.\main.c      **** 	
  61:.\main.c      **** 	/*Start all the hardware components required*/
  62:.\main.c      **** 	ADC_SAR_Seq_1_Start();
  49              		.loc 1 62 0
  50              		.thumb
  51 0010 FFF7FEFF 		bl	ADC_SAR_Seq_1_Start
  52              	.LVL3:
ARM GAS  C:\Users\nm\AppData\Local\Temp\cc1nXjze.s 			page 3


  63:.\main.c      ****     EEPROM_1_Start();
  53              		.loc 1 63 0
  54 0014 FFF7FEFF 		bl	EEPROM_1_Start
  55              	.LVL4:
  64:.\main.c      ****     UART_Start();
  56              		.loc 1 64 0
  57 0018 FFF7FEFF 		bl	UART_Start
  58              	.LVL5:
  65:.\main.c      ****     
  66:.\main.c      ****     /*Set Relay Control Pin to Open Drain Drives HI*/
  67:.\main.c      ****     Pin_3_SetDriveMode(Pin_3_DM_OD_HI);
  59              		.loc 1 67 0
  60 001c 0A20     		movs	r0, #10
  61 001e FFF7FEFF 		bl	Pin_3_SetDriveMode
  62              	.LVL6:
  68:.\main.c      ****    
  69:.\main.c      ****     /*State Machine Implementation */
  70:.\main.c      ****     
  71:.\main.c      ****     /*Define States*/
  72:.\main.c      ****      enum tempSenseStates {
  73:.\main.c      ****             MEASURE,
  74:.\main.c      ****             CALCULATE,
  75:.\main.c      ****             DATA_TRANSFER,
  76:.\main.c      ****             SENSOR_FAULT,
  77:.\main.c      ****             SHUTDOWN,
  78:.\main.c      ****             REPORT_HOTSPOT,        //Used after shutdown to report a hotspot
  79:.\main.c      ****             REPORT_SENSORFAULT,     //Used after shutdown to report a sensor fault
  80:.\main.c      ****             DEFAULT
  81:.\main.c      ****         };
  82:.\main.c      ****         
  83:.\main.c      ****     /*Initialize State Machine*/
  84:.\main.c      ****     enum tempSenseStates state = MEASURE;
  63              		.loc 1 84 0
  64 0022 0025     		movs	r5, #0
  65              	.LVL7:
  66              	.L3:
  85:.\main.c      ****     
  86:.\main.c      ****     //This will be used to determine if shutdown was triggered by an over temperature or sensor fau
  87:.\main.c      ****     enum tempSenseStates previousState = MEASURE; 
  88:.\main.c      ****     
  89:.\main.c      **** 	for(;;)
  90:.\main.c      ****     {
  91:.\main.c      ****         switch(state)
  67              		.loc 1 91 0
  68 0024 0DB1     		cbz	r5, .L4
  69 0026 55B9     		cbnz	r5, .L5
  70 0028 FCE7     		b	.L3
  71              	.L4:
  72 002a 0024     		movs	r4, #0
  73 002c 04E0     		b	.L6
  74              	.LVL8:
  75              	.L7:
  92:.\main.c      ****         {
  93:.\main.c      ****             case MEASURE:
  94:.\main.c      ****             
  95:.\main.c      ****                 /* Measure Voltage Across All Temperature Sensors*/
  96:.\main.c      ****                 i = 0;      //Reset the channel counter THIS WONT WORK FOR 
ARM GAS  C:\Users\nm\AppData\Local\Temp\cc1nXjze.s 			page 4


  97:.\main.c      ****                 while(i<numAdcChannels){
  98:.\main.c      ****     	            vSense[i] = MeasureSensorVoltage(i); 
  76              		.loc 1 98 0
  77 002e E0B2     		uxtb	r0, r4
  78 0030 FFF7FEFF 		bl	MeasureSensorVoltage
  79              	.LVL9:
  99:.\main.c      ****                     if (vSense[i] <= vHighTemp){
 100:.\main.c      ****                         previousState = state;
 101:.\main.c      ****                         state = SHUTDOWN;
 102:.\main.c      ****                     }else{
 103:.\main.c      ****                         //continue measurement; sensor faults will all be recorded at once in an ar
 104:.\main.c      ****                     }
 105:.\main.c      ****                     i++;
  80              		.loc 1 105 0
  81 0034 0134     		adds	r4, r4, #1
  82              	.LVL10:
 106:.\main.c      ****                     //TODO - if a voltage is measured < 1.51 (60 C), the relay will be flipped - ne
 107:.\main.c      ****                     state = SHUTDOWN; // just a test
  83              		.loc 1 107 0
  84 0036 0425     		movs	r5, #4
  85              	.LVL11:
  86              	.L6:
  97:.\main.c      ****     	            vSense[i] = MeasureSensorVoltage(i); 
  87              		.loc 1 97 0
  88 0038 012C     		cmp	r4, #1
  89 003a F8DD     		ble	.L7
  90 003c F2E7     		b	.L3
  91              	.LVL12:
  92              	.L5:
 108:.\main.c      ****                 }
 109:.\main.c      ****             
 110:.\main.c      ****             break;
 111:.\main.c      ****             
 112:.\main.c      ****             case CALCULATE:
 113:.\main.c      ****             
 114:.\main.c      ****             break;
 115:.\main.c      ****             
 116:.\main.c      ****             case DATA_TRANSFER:
 117:.\main.c      ****             
 118:.\main.c      ****             break;
 119:.\main.c      ****             
 120:.\main.c      ****             case SENSOR_FAULT:
 121:.\main.c      ****             
 122:.\main.c      ****             break;
 123:.\main.c      ****             
 124:.\main.c      ****             case SHUTDOWN:
 125:.\main.c      ****                 Pin_3_Write(RELAY_OFF);
  93              		.loc 1 125 0
  94 003e 0020     		movs	r0, #0
  95 0040 FFF7FEFF 		bl	Pin_3_Write
  96              	.LVL13:
 126:.\main.c      ****                 Pin_3_Write(RELAY_ON);
  97              		.loc 1 126 0
  98 0044 0120     		movs	r0, #1
  99 0046 FFF7FEFF 		bl	Pin_3_Write
 100              	.LVL14:
 127:.\main.c      ****                 Pin_3_Write(RELAY_OFF);
ARM GAS  C:\Users\nm\AppData\Local\Temp\cc1nXjze.s 			page 5


 101              		.loc 1 127 0
 102 004a 0020     		movs	r0, #0
 103 004c FFF7FEFF 		bl	Pin_3_Write
 104              	.LVL15:
 128:.\main.c      ****             break;
 105              		.loc 1 128 0
 106 0050 E8E7     		b	.L3
 107              		.cfi_endproc
 108              	.LFE63:
 109              		.size	main, .-main
 110 0052 00BF     		.text
 111              	.Letext0:
 112              		.file 2 "c:\\program files (x86)\\cypress\\psoc creator\\3.3\\psoc creator\\import\\gnu\\arm\\4.9.
 113              		.file 3 "c:\\program files (x86)\\cypress\\psoc creator\\3.3\\psoc creator\\import\\gnu\\arm\\4.9.
 114              		.file 4 "Generated_Source\\PSoC5/cytypes.h"
 115              		.file 5 "c:\\program files (x86)\\cypress\\psoc creator\\3.3\\psoc creator\\import\\gnu\\arm\\4.9.
 116              		.file 6 "Generated_Source\\PSoC5/ADC_SAR_Seq_1.h"
 117              		.file 7 "Generated_Source\\PSoC5/EEPROM_1.h"
 118              		.file 8 "Generated_Source\\PSoC5/UART.h"
 119              		.file 9 ".\\measurement.h"
 120              		.file 10 "Generated_Source\\PSoC5/core_cm3.h"
 121              		.file 11 "Generated_Source\\PSoC5/Pin_3.h"