ARM GAS  C:\Users\nm\AppData\Local\Temp\ccfftuKh.s 			page 1


   1              		.syntax unified
   2              		.cpu cortex-m3
   3              		.fpu softvfp
   4              		.eabi_attribute 20, 1
   5              		.eabi_attribute 21, 1
   6              		.eabi_attribute 23, 3
   7              		.eabi_attribute 24, 1
   8              		.eabi_attribute 25, 1
   9              		.eabi_attribute 26, 1
  10              		.eabi_attribute 30, 6
  11              		.eabi_attribute 34, 1
  12              		.eabi_attribute 18, 4
  13              		.thumb
  14              		.file	"cyfitter_cfg.c"
  15              		.text
  16              	.Ltext0:
  17              		.cfi_sections	.debug_frame
  18              		.section	.text.CYMEMZERO,"ax",%progbits
  19              		.align	2
  20              		.thumb
  21              		.thumb_func
  22              		.type	CYMEMZERO, %function
  23              	CYMEMZERO:
  24              	.LFB0:
  25              		.file 1 ".\\Generated_Source\\PSoC5\\cyfitter_cfg.c"
   1:.\Generated_Source\PSoC5/cyfitter_cfg.c **** /*******************************************************************************
   2:.\Generated_Source\PSoC5/cyfitter_cfg.c **** * File Name: cyfitter_cfg.c
   3:.\Generated_Source\PSoC5/cyfitter_cfg.c **** * 
   4:.\Generated_Source\PSoC5/cyfitter_cfg.c **** * PSoC Creator  3.3 SP1
   5:.\Generated_Source\PSoC5/cyfitter_cfg.c **** *
   6:.\Generated_Source\PSoC5/cyfitter_cfg.c **** * Description:
   7:.\Generated_Source\PSoC5/cyfitter_cfg.c **** * This file contains device initialization code.
   8:.\Generated_Source\PSoC5/cyfitter_cfg.c **** * Except for the user defined sections in CyClockStartupError(), this file should not be modified.
   9:.\Generated_Source\PSoC5/cyfitter_cfg.c **** * This file is automatically generated by PSoC Creator.
  10:.\Generated_Source\PSoC5/cyfitter_cfg.c **** *
  11:.\Generated_Source\PSoC5/cyfitter_cfg.c **** ********************************************************************************
  12:.\Generated_Source\PSoC5/cyfitter_cfg.c **** * Copyright (c) 2007-2015 Cypress Semiconductor.  All rights reserved.
  13:.\Generated_Source\PSoC5/cyfitter_cfg.c **** * You may use this file only in accordance with the license, terms, conditions, 
  14:.\Generated_Source\PSoC5/cyfitter_cfg.c **** * disclaimers, and limitations in the end user license agreement accompanying 
  15:.\Generated_Source\PSoC5/cyfitter_cfg.c **** * the software package with which this file was provided.
  16:.\Generated_Source\PSoC5/cyfitter_cfg.c **** ********************************************************************************/
  17:.\Generated_Source\PSoC5/cyfitter_cfg.c **** 
  18:.\Generated_Source\PSoC5/cyfitter_cfg.c **** #include <string.h>
  19:.\Generated_Source\PSoC5/cyfitter_cfg.c **** #include "cytypes.h"
  20:.\Generated_Source\PSoC5/cyfitter_cfg.c **** #include "cydevice_trm.h"
  21:.\Generated_Source\PSoC5/cyfitter_cfg.c **** #include "cyfitter.h"
  22:.\Generated_Source\PSoC5/cyfitter_cfg.c **** #include "CyLib.h"
  23:.\Generated_Source\PSoC5/cyfitter_cfg.c **** #include "cyfitter_cfg.h"
  24:.\Generated_Source\PSoC5/cyfitter_cfg.c **** 
  25:.\Generated_Source\PSoC5/cyfitter_cfg.c **** #define CY_NEED_CYCLOCKSTARTUPERROR 1
  26:.\Generated_Source\PSoC5/cyfitter_cfg.c **** 
  27:.\Generated_Source\PSoC5/cyfitter_cfg.c **** 
  28:.\Generated_Source\PSoC5/cyfitter_cfg.c **** #if defined(__GNUC__) || defined(__ARMCC_VERSION)
  29:.\Generated_Source\PSoC5/cyfitter_cfg.c ****     #define CYPACKED 
  30:.\Generated_Source\PSoC5/cyfitter_cfg.c ****     #define CYPACKED_ATTR __attribute__ ((packed))
  31:.\Generated_Source\PSoC5/cyfitter_cfg.c ****     #define CYALIGNED __attribute__ ((aligned))
  32:.\Generated_Source\PSoC5/cyfitter_cfg.c ****     #define CY_CFG_UNUSED __attribute__ ((unused))
ARM GAS  C:\Users\nm\AppData\Local\Temp\ccfftuKh.s 			page 2


  33:.\Generated_Source\PSoC5/cyfitter_cfg.c ****     #ifndef CY_CFG_SECTION
  34:.\Generated_Source\PSoC5/cyfitter_cfg.c ****         #define CY_CFG_SECTION __attribute__ ((section(".psocinit")))
  35:.\Generated_Source\PSoC5/cyfitter_cfg.c ****     #endif
  36:.\Generated_Source\PSoC5/cyfitter_cfg.c ****     
  37:.\Generated_Source\PSoC5/cyfitter_cfg.c ****     #if CYDEV_CONFIGURATION_DMA
  38:.\Generated_Source\PSoC5/cyfitter_cfg.c ****         #if (defined(__ARMCC_VERSION) || defined(__GNUC__))
  39:.\Generated_Source\PSoC5/cyfitter_cfg.c ****             #ifndef DMAINITSEC
  40:.\Generated_Source\PSoC5/cyfitter_cfg.c ****                 #define DMAINITSEC __attribute__ ((section(".dma_init")))
  41:.\Generated_Source\PSoC5/cyfitter_cfg.c ****             #endif
  42:.\Generated_Source\PSoC5/cyfitter_cfg.c ****         #elif defined(__ICCARM__)
  43:.\Generated_Source\PSoC5/cyfitter_cfg.c ****             #define DMAINITSEC _Pragma("location=\".dma_init\"")
  44:.\Generated_Source\PSoC5/cyfitter_cfg.c ****         #endif
  45:.\Generated_Source\PSoC5/cyfitter_cfg.c ****     #else
  46:.\Generated_Source\PSoC5/cyfitter_cfg.c ****         #define DMAINITSEC
  47:.\Generated_Source\PSoC5/cyfitter_cfg.c ****     #endif
  48:.\Generated_Source\PSoC5/cyfitter_cfg.c **** 
  49:.\Generated_Source\PSoC5/cyfitter_cfg.c ****     #if defined(__ARMCC_VERSION)
  50:.\Generated_Source\PSoC5/cyfitter_cfg.c ****         #define CY_CFG_MEMORY_BARRIER() __memory_changed()
  51:.\Generated_Source\PSoC5/cyfitter_cfg.c ****     #else
  52:.\Generated_Source\PSoC5/cyfitter_cfg.c ****         #define CY_CFG_MEMORY_BARRIER() __sync_synchronize()
  53:.\Generated_Source\PSoC5/cyfitter_cfg.c ****     #endif
  54:.\Generated_Source\PSoC5/cyfitter_cfg.c ****     
  55:.\Generated_Source\PSoC5/cyfitter_cfg.c **** #elif defined(__ICCARM__)
  56:.\Generated_Source\PSoC5/cyfitter_cfg.c ****     #include <intrinsics.h>
  57:.\Generated_Source\PSoC5/cyfitter_cfg.c **** 
  58:.\Generated_Source\PSoC5/cyfitter_cfg.c ****     #define CYPACKED __packed
  59:.\Generated_Source\PSoC5/cyfitter_cfg.c ****     #define CYPACKED_ATTR 
  60:.\Generated_Source\PSoC5/cyfitter_cfg.c ****     #define CYALIGNED _Pragma("data_alignment=4")
  61:.\Generated_Source\PSoC5/cyfitter_cfg.c ****     #define CY_CFG_UNUSED _Pragma("diag_suppress=Pe177")
  62:.\Generated_Source\PSoC5/cyfitter_cfg.c ****     #define CY_CFG_SECTION _Pragma("location=\".psocinit\"")
  63:.\Generated_Source\PSoC5/cyfitter_cfg.c ****     
  64:.\Generated_Source\PSoC5/cyfitter_cfg.c ****     #if CYDEV_CONFIGURATION_DMA
  65:.\Generated_Source\PSoC5/cyfitter_cfg.c ****         #if (defined(__ARMCC_VERSION) || defined(__GNUC__))
  66:.\Generated_Source\PSoC5/cyfitter_cfg.c ****             #ifndef DMAINITSEC
  67:.\Generated_Source\PSoC5/cyfitter_cfg.c ****                 #define DMAINITSEC __attribute__ ((section(".dma_init")))
  68:.\Generated_Source\PSoC5/cyfitter_cfg.c ****             #endif
  69:.\Generated_Source\PSoC5/cyfitter_cfg.c ****         #elif defined(__ICCARM__)
  70:.\Generated_Source\PSoC5/cyfitter_cfg.c ****             #define DMAINITSEC _Pragma("location=\".dma_init\"")
  71:.\Generated_Source\PSoC5/cyfitter_cfg.c ****         #endif
  72:.\Generated_Source\PSoC5/cyfitter_cfg.c ****     #else
  73:.\Generated_Source\PSoC5/cyfitter_cfg.c ****         #define DMAINITSEC
  74:.\Generated_Source\PSoC5/cyfitter_cfg.c ****     #endif
  75:.\Generated_Source\PSoC5/cyfitter_cfg.c **** 
  76:.\Generated_Source\PSoC5/cyfitter_cfg.c ****     #define CY_CFG_MEMORY_BARRIER() __DMB()
  77:.\Generated_Source\PSoC5/cyfitter_cfg.c ****     
  78:.\Generated_Source\PSoC5/cyfitter_cfg.c **** #else
  79:.\Generated_Source\PSoC5/cyfitter_cfg.c ****     #error Unsupported toolchain
  80:.\Generated_Source\PSoC5/cyfitter_cfg.c **** #endif
  81:.\Generated_Source\PSoC5/cyfitter_cfg.c **** 
  82:.\Generated_Source\PSoC5/cyfitter_cfg.c **** 
  83:.\Generated_Source\PSoC5/cyfitter_cfg.c **** CY_CFG_UNUSED
  84:.\Generated_Source\PSoC5/cyfitter_cfg.c **** static void CYMEMZERO(void *s, size_t n);
  85:.\Generated_Source\PSoC5/cyfitter_cfg.c **** CY_CFG_UNUSED
  86:.\Generated_Source\PSoC5/cyfitter_cfg.c **** static void CYMEMZERO(void *s, size_t n)
  87:.\Generated_Source\PSoC5/cyfitter_cfg.c **** {
  26              		.loc 1 87 0
  27              		.cfi_startproc
ARM GAS  C:\Users\nm\AppData\Local\Temp\ccfftuKh.s 			page 3


  28              		@ args = 0, pretend = 0, frame = 8
  29              		@ frame_needed = 1, uses_anonymous_args = 0
  30 0000 80B5     		push	{r7, lr}
  31              		.cfi_def_cfa_offset 8
  32              		.cfi_offset 7, -8
  33              		.cfi_offset 14, -4
  34 0002 82B0     		sub	sp, sp, #8
  35              		.cfi_def_cfa_offset 16
  36 0004 00AF     		add	r7, sp, #0
  37              		.cfi_def_cfa_register 7
  38 0006 7860     		str	r0, [r7, #4]
  39 0008 3960     		str	r1, [r7]
  88:.\Generated_Source\PSoC5/cyfitter_cfg.c **** 	(void)memset(s, 0, n);
  40              		.loc 1 88 0
  41 000a 7868     		ldr	r0, [r7, #4]
  42 000c 0021     		movs	r1, #0
  43 000e 3A68     		ldr	r2, [r7]
  44 0010 FFF7FEFF 		bl	memset
  89:.\Generated_Source\PSoC5/cyfitter_cfg.c **** }
  45              		.loc 1 89 0
  46 0014 0837     		adds	r7, r7, #8
  47              		.cfi_def_cfa_offset 8
  48 0016 BD46     		mov	sp, r7
  49              		.cfi_def_cfa_register 13
  50              		@ sp needed
  51 0018 80BD     		pop	{r7, pc}
  52              		.cfi_endproc
  53              	.LFE0:
  54              		.size	CYMEMZERO, .-CYMEMZERO
  55 001a 00BF     		.section	.text.CYCONFIGCPY,"ax",%progbits
  56              		.align	2
  57              		.thumb
  58              		.thumb_func
  59              		.type	CYCONFIGCPY, %function
  60              	CYCONFIGCPY:
  61              	.LFB1:
  90:.\Generated_Source\PSoC5/cyfitter_cfg.c **** CY_CFG_UNUSED
  91:.\Generated_Source\PSoC5/cyfitter_cfg.c **** static void CYCONFIGCPY(void *dest, const void *src, size_t n);
  92:.\Generated_Source\PSoC5/cyfitter_cfg.c **** CY_CFG_UNUSED
  93:.\Generated_Source\PSoC5/cyfitter_cfg.c **** static void CYCONFIGCPY(void *dest, const void *src, size_t n)
  94:.\Generated_Source\PSoC5/cyfitter_cfg.c **** {
  62              		.loc 1 94 0
  63              		.cfi_startproc
  64              		@ args = 0, pretend = 0, frame = 16
  65              		@ frame_needed = 1, uses_anonymous_args = 0
  66 0000 80B5     		push	{r7, lr}
  67              		.cfi_def_cfa_offset 8
  68              		.cfi_offset 7, -8
  69              		.cfi_offset 14, -4
  70 0002 84B0     		sub	sp, sp, #16
  71              		.cfi_def_cfa_offset 24
  72 0004 00AF     		add	r7, sp, #0
  73              		.cfi_def_cfa_register 7
  74 0006 F860     		str	r0, [r7, #12]
  75 0008 B960     		str	r1, [r7, #8]
  76 000a 7A60     		str	r2, [r7, #4]
  95:.\Generated_Source\PSoC5/cyfitter_cfg.c **** 	(void)memcpy(dest, src, n);
ARM GAS  C:\Users\nm\AppData\Local\Temp\ccfftuKh.s 			page 4


  77              		.loc 1 95 0
  78 000c F868     		ldr	r0, [r7, #12]
  79 000e B968     		ldr	r1, [r7, #8]
  80 0010 7A68     		ldr	r2, [r7, #4]
  81 0012 FFF7FEFF 		bl	memcpy
  96:.\Generated_Source\PSoC5/cyfitter_cfg.c **** }
  82              		.loc 1 96 0
  83 0016 1037     		adds	r7, r7, #16
  84              		.cfi_def_cfa_offset 8
  85 0018 BD46     		mov	sp, r7
  86              		.cfi_def_cfa_register 13
  87              		@ sp needed
  88 001a 80BD     		pop	{r7, pc}
  89              		.cfi_endproc
  90              	.LFE1:
  91              		.size	CYCONFIGCPY, .-CYCONFIGCPY
  92              		.section	.text.CYCONFIGCPYCODE,"ax",%progbits
  93              		.align	2
  94              		.thumb
  95              		.thumb_func
  96              		.type	CYCONFIGCPYCODE, %function
  97              	CYCONFIGCPYCODE:
  98              	.LFB2:
  97:.\Generated_Source\PSoC5/cyfitter_cfg.c **** CY_CFG_UNUSED
  98:.\Generated_Source\PSoC5/cyfitter_cfg.c **** static void CYCONFIGCPYCODE(void *dest, const void *src, size_t n);
  99:.\Generated_Source\PSoC5/cyfitter_cfg.c **** CY_CFG_UNUSED
 100:.\Generated_Source\PSoC5/cyfitter_cfg.c **** static void CYCONFIGCPYCODE(void *dest, const void *src, size_t n)
 101:.\Generated_Source\PSoC5/cyfitter_cfg.c **** {
  99              		.loc 1 101 0
 100              		.cfi_startproc
 101              		@ args = 0, pretend = 0, frame = 16
 102              		@ frame_needed = 1, uses_anonymous_args = 0
 103 0000 80B5     		push	{r7, lr}
 104              		.cfi_def_cfa_offset 8
 105              		.cfi_offset 7, -8
 106              		.cfi_offset 14, -4
 107 0002 84B0     		sub	sp, sp, #16
 108              		.cfi_def_cfa_offset 24
 109 0004 00AF     		add	r7, sp, #0
 110              		.cfi_def_cfa_register 7
 111 0006 F860     		str	r0, [r7, #12]
 112 0008 B960     		str	r1, [r7, #8]
 113 000a 7A60     		str	r2, [r7, #4]
 102:.\Generated_Source\PSoC5/cyfitter_cfg.c **** 	(void)memcpy(dest, src, n);
 114              		.loc 1 102 0
 115 000c F868     		ldr	r0, [r7, #12]
 116 000e B968     		ldr	r1, [r7, #8]
 117 0010 7A68     		ldr	r2, [r7, #4]
 118 0012 FFF7FEFF 		bl	memcpy
 103:.\Generated_Source\PSoC5/cyfitter_cfg.c **** }
 119              		.loc 1 103 0
 120 0016 1037     		adds	r7, r7, #16
 121              		.cfi_def_cfa_offset 8
 122 0018 BD46     		mov	sp, r7
 123              		.cfi_def_cfa_register 13
 124              		@ sp needed
 125 001a 80BD     		pop	{r7, pc}
ARM GAS  C:\Users\nm\AppData\Local\Temp\ccfftuKh.s 			page 5


 126              		.cfi_endproc
 127              	.LFE2:
 128              		.size	CYCONFIGCPYCODE, .-CYCONFIGCPYCODE
 129              		.section	.text.CyClockStartupError,"ax",%progbits
 130              		.align	2
 131              		.thumb
 132              		.thumb_func
 133              		.type	CyClockStartupError, %function
 134              	CyClockStartupError:
 135              	.LFB3:
 104:.\Generated_Source\PSoC5/cyfitter_cfg.c **** 
 105:.\Generated_Source\PSoC5/cyfitter_cfg.c **** 
 106:.\Generated_Source\PSoC5/cyfitter_cfg.c **** 
 107:.\Generated_Source\PSoC5/cyfitter_cfg.c **** /* Clock startup error codes                                                   */
 108:.\Generated_Source\PSoC5/cyfitter_cfg.c **** #define CYCLOCKSTART_NO_ERROR    0u
 109:.\Generated_Source\PSoC5/cyfitter_cfg.c **** #define CYCLOCKSTART_XTAL_ERROR  1u
 110:.\Generated_Source\PSoC5/cyfitter_cfg.c **** #define CYCLOCKSTART_32KHZ_ERROR 2u
 111:.\Generated_Source\PSoC5/cyfitter_cfg.c **** #define CYCLOCKSTART_PLL_ERROR   3u
 112:.\Generated_Source\PSoC5/cyfitter_cfg.c **** 
 113:.\Generated_Source\PSoC5/cyfitter_cfg.c **** #ifdef CY_NEED_CYCLOCKSTARTUPERROR
 114:.\Generated_Source\PSoC5/cyfitter_cfg.c **** /*******************************************************************************
 115:.\Generated_Source\PSoC5/cyfitter_cfg.c **** * Function Name: CyClockStartupError
 116:.\Generated_Source\PSoC5/cyfitter_cfg.c **** ********************************************************************************
 117:.\Generated_Source\PSoC5/cyfitter_cfg.c **** * Summary:
 118:.\Generated_Source\PSoC5/cyfitter_cfg.c **** *  If an error is encountered during clock configuration (crystal startup error,
 119:.\Generated_Source\PSoC5/cyfitter_cfg.c **** *  PLL lock error, etc.), the system will end up here.  Unless reimplemented by
 120:.\Generated_Source\PSoC5/cyfitter_cfg.c **** *  the customer, this function will stop in an infinite loop.
 121:.\Generated_Source\PSoC5/cyfitter_cfg.c **** *
 122:.\Generated_Source\PSoC5/cyfitter_cfg.c **** * Parameters:
 123:.\Generated_Source\PSoC5/cyfitter_cfg.c **** *   void
 124:.\Generated_Source\PSoC5/cyfitter_cfg.c **** *
 125:.\Generated_Source\PSoC5/cyfitter_cfg.c **** * Return:
 126:.\Generated_Source\PSoC5/cyfitter_cfg.c **** *   void
 127:.\Generated_Source\PSoC5/cyfitter_cfg.c **** *
 128:.\Generated_Source\PSoC5/cyfitter_cfg.c **** *******************************************************************************/
 129:.\Generated_Source\PSoC5/cyfitter_cfg.c **** CY_CFG_UNUSED
 130:.\Generated_Source\PSoC5/cyfitter_cfg.c **** static void CyClockStartupError(uint8 errorCode);
 131:.\Generated_Source\PSoC5/cyfitter_cfg.c **** CY_CFG_UNUSED
 132:.\Generated_Source\PSoC5/cyfitter_cfg.c **** static void CyClockStartupError(uint8 errorCode)
 133:.\Generated_Source\PSoC5/cyfitter_cfg.c **** {
 136              		.loc 1 133 0
 137              		.cfi_startproc
 138              		@ args = 0, pretend = 0, frame = 8
 139              		@ frame_needed = 1, uses_anonymous_args = 0
 140              		@ link register save eliminated.
 141 0000 80B4     		push	{r7}
 142              		.cfi_def_cfa_offset 4
 143              		.cfi_offset 7, -4
 144 0002 83B0     		sub	sp, sp, #12
 145              		.cfi_def_cfa_offset 16
 146 0004 00AF     		add	r7, sp, #0
 147              		.cfi_def_cfa_register 7
 148 0006 0346     		mov	r3, r0
 149 0008 FB71     		strb	r3, [r7, #7]
 150              	.L5:
 134:.\Generated_Source\PSoC5/cyfitter_cfg.c ****     /* To remove the compiler warning if errorCode not used.                */
 135:.\Generated_Source\PSoC5/cyfitter_cfg.c ****     errorCode = errorCode;
ARM GAS  C:\Users\nm\AppData\Local\Temp\ccfftuKh.s 			page 6


 136:.\Generated_Source\PSoC5/cyfitter_cfg.c **** 
 137:.\Generated_Source\PSoC5/cyfitter_cfg.c ****     /* `#START CyClockStartupError` */
 138:.\Generated_Source\PSoC5/cyfitter_cfg.c **** 
 139:.\Generated_Source\PSoC5/cyfitter_cfg.c ****     /* If we have a clock startup error (bad MHz crystal, PLL lock, etc.),  */
 140:.\Generated_Source\PSoC5/cyfitter_cfg.c ****     /* we will end up here to allow the customer to implement something to  */
 141:.\Generated_Source\PSoC5/cyfitter_cfg.c ****     /* deal with the clock condition.                                       */
 142:.\Generated_Source\PSoC5/cyfitter_cfg.c **** 
 143:.\Generated_Source\PSoC5/cyfitter_cfg.c ****     /* `#END` */
 144:.\Generated_Source\PSoC5/cyfitter_cfg.c **** 
 145:.\Generated_Source\PSoC5/cyfitter_cfg.c ****     /* If nothing else, stop here since the clocks have not started         */
 146:.\Generated_Source\PSoC5/cyfitter_cfg.c ****     /* correctly.                                                           */
 147:.\Generated_Source\PSoC5/cyfitter_cfg.c ****     while(1) {}
 151              		.loc 1 147 0 discriminator 1
 152 000a FEE7     		b	.L5
 153              		.cfi_endproc
 154              	.LFE3:
 155              		.size	CyClockStartupError, .-CyClockStartupError
 156              		.section	.text.cfg_dma_init,"ax",%progbits
 157              		.align	2
 158              		.thumb
 159              		.thumb_func
 160              		.type	cfg_dma_init, %function
 161              	cfg_dma_init:
 162              	.LFB4:
 148:.\Generated_Source\PSoC5/cyfitter_cfg.c **** }
 149:.\Generated_Source\PSoC5/cyfitter_cfg.c **** #endif
 150:.\Generated_Source\PSoC5/cyfitter_cfg.c **** 
 151:.\Generated_Source\PSoC5/cyfitter_cfg.c **** /* IOPORT_7 Address: CYDEV_PRTDSI_PRT12_BASE Size (bytes): 6 */
 152:.\Generated_Source\PSoC5/cyfitter_cfg.c **** #define BS_IOPORT_7_VAL ((const uint8 CYFAR *)0x48000000u)
 153:.\Generated_Source\PSoC5/cyfitter_cfg.c **** 
 154:.\Generated_Source\PSoC5/cyfitter_cfg.c **** /* UDB_0_0_0_CONFIG Address: CYDEV_UCFG_B1_P5_U0_BASE Size (bytes): 128 */
 155:.\Generated_Source\PSoC5/cyfitter_cfg.c **** #define BS_UDB_0_0_0_CONFIG_VAL ((const uint8 CYFAR *)0x48000008u)
 156:.\Generated_Source\PSoC5/cyfitter_cfg.c **** 
 157:.\Generated_Source\PSoC5/cyfitter_cfg.c **** /* UDB_0_0_1_CONFIG Address: CYDEV_UCFG_B1_P5_U1_BASE Size (bytes): 128 */
 158:.\Generated_Source\PSoC5/cyfitter_cfg.c **** #define BS_UDB_0_0_1_CONFIG_VAL ((const uint8 CYFAR *)0x48000088u)
 159:.\Generated_Source\PSoC5/cyfitter_cfg.c **** 
 160:.\Generated_Source\PSoC5/cyfitter_cfg.c **** /* UWRK_B1_WRK_STATCTL_BITS Address: CYDEV_UWRK_UWRK8_B1_BASE + 0x00000070u Size (bytes): 32 */
 161:.\Generated_Source\PSoC5/cyfitter_cfg.c **** #define BS_UWRK_B1_WRK_STATCTL_BITS_VAL ((const uint8 CYFAR *)0x48000108u)
 162:.\Generated_Source\PSoC5/cyfitter_cfg.c **** 
 163:.\Generated_Source\PSoC5/cyfitter_cfg.c **** /* UCFG_BCTL1 Address: CYREG_BCTL1_MDCLK_EN Size (bytes): 16 */
 164:.\Generated_Source\PSoC5/cyfitter_cfg.c **** #define BS_UCFG_BCTL1_VAL ((const uint8 CYFAR *)0x48000128u)
 165:.\Generated_Source\PSoC5/cyfitter_cfg.c **** 
 166:.\Generated_Source\PSoC5/cyfitter_cfg.c **** /* DSISWITCH_0_0 Address: CYDEV_UCFG_DSI13_BASE Size (bytes): 128 */
 167:.\Generated_Source\PSoC5/cyfitter_cfg.c **** #define BS_DSISWITCH_0_0_VAL ((const uint8 CYFAR *)0x48000138u)
 168:.\Generated_Source\PSoC5/cyfitter_cfg.c **** 
 169:.\Generated_Source\PSoC5/cyfitter_cfg.c **** /* DSI0_0_HV_ROUTING Address: CYDEV_UCFG_DSI13_BASE + 0x00000080u Size (bytes): 128 */
 170:.\Generated_Source\PSoC5/cyfitter_cfg.c **** #define BS_DSI0_0_HV_ROUTING_VAL ((const uint8 CYFAR *)0x480001B8u)
 171:.\Generated_Source\PSoC5/cyfitter_cfg.c **** 
 172:.\Generated_Source\PSoC5/cyfitter_cfg.c **** /* DSI0_1_HV_ROUTING Address: CYDEV_UCFG_DSI12_BASE + 0x00000080u Size (bytes): 128 */
 173:.\Generated_Source\PSoC5/cyfitter_cfg.c **** #define BS_DSI0_1_HV_ROUTING_VAL ((const uint8 CYFAR *)0x48000238u)
 174:.\Generated_Source\PSoC5/cyfitter_cfg.c **** 
 175:.\Generated_Source\PSoC5/cyfitter_cfg.c **** /* DSI0_2_HV_ROUTING Address: CYDEV_UCFG_DSI7_BASE + 0x00000080u Size (bytes): 128 */
 176:.\Generated_Source\PSoC5/cyfitter_cfg.c **** #define BS_DSI0_2_HV_ROUTING_VAL ((const uint8 CYFAR *)0x480002B8u)
 177:.\Generated_Source\PSoC5/cyfitter_cfg.c **** 
 178:.\Generated_Source\PSoC5/cyfitter_cfg.c **** /* DSISWITCH_0_3 Address: CYDEV_UCFG_DSI6_BASE Size (bytes): 128 */
 179:.\Generated_Source\PSoC5/cyfitter_cfg.c **** #define BS_DSISWITCH_0_3_VAL ((const uint8 CYFAR *)0x48000338u)
 180:.\Generated_Source\PSoC5/cyfitter_cfg.c **** 
ARM GAS  C:\Users\nm\AppData\Local\Temp\ccfftuKh.s 			page 7


 181:.\Generated_Source\PSoC5/cyfitter_cfg.c **** /* DSI0_3_HV_ROUTING Address: CYDEV_UCFG_DSI6_BASE + 0x00000080u Size (bytes): 128 */
 182:.\Generated_Source\PSoC5/cyfitter_cfg.c **** #define BS_DSI0_3_HV_ROUTING_VAL ((const uint8 CYFAR *)0x480003B8u)
 183:.\Generated_Source\PSoC5/cyfitter_cfg.c **** 
 184:.\Generated_Source\PSoC5/cyfitter_cfg.c **** /* DSI0_4_HV_ROUTING Address: CYDEV_UCFG_DSI5_BASE + 0x00000080u Size (bytes): 128 */
 185:.\Generated_Source\PSoC5/cyfitter_cfg.c **** #define BS_DSI0_4_HV_ROUTING_VAL ((const uint8 CYFAR *)0x48000438u)
 186:.\Generated_Source\PSoC5/cyfitter_cfg.c **** 
 187:.\Generated_Source\PSoC5/cyfitter_cfg.c **** /* DSISWITCH_0_5 Address: CYDEV_UCFG_DSI4_BASE Size (bytes): 128 */
 188:.\Generated_Source\PSoC5/cyfitter_cfg.c **** #define BS_DSISWITCH_0_5_VAL ((const uint8 CYFAR *)0x480004B8u)
 189:.\Generated_Source\PSoC5/cyfitter_cfg.c **** 
 190:.\Generated_Source\PSoC5/cyfitter_cfg.c **** /* DSI0_5_HV_ROUTING Address: CYDEV_UCFG_DSI4_BASE + 0x00000080u Size (bytes): 128 */
 191:.\Generated_Source\PSoC5/cyfitter_cfg.c **** #define BS_DSI0_5_HV_ROUTING_VAL ((const uint8 CYFAR *)0x48000538u)
 192:.\Generated_Source\PSoC5/cyfitter_cfg.c **** 
 193:.\Generated_Source\PSoC5/cyfitter_cfg.c **** /* UDBSWITCH_0_0 Address: CYDEV_UCFG_B1_P5_ROUTE_BASE Size (bytes): 128 */
 194:.\Generated_Source\PSoC5/cyfitter_cfg.c **** #define BS_UDBSWITCH_0_0_VAL ((const uint8 CYFAR *)0x480005B8u)
 195:.\Generated_Source\PSoC5/cyfitter_cfg.c **** 
 196:.\Generated_Source\PSoC5/cyfitter_cfg.c **** /* UDB_1_0_HV_ROUTING Address: CYDEV_UCFG_B1_P5_ROUTE_BASE + 0x00000080u Size (bytes): 128 */
 197:.\Generated_Source\PSoC5/cyfitter_cfg.c **** #define BS_UDB_1_0_HV_ROUTING_VAL ((const uint8 CYFAR *)0x48000638u)
 198:.\Generated_Source\PSoC5/cyfitter_cfg.c **** 
 199:.\Generated_Source\PSoC5/cyfitter_cfg.c **** /* UDB_2_0_HV_ROUTING Address: CYDEV_UCFG_B1_P2_ROUTE_BASE + 0x00000080u Size (bytes): 128 */
 200:.\Generated_Source\PSoC5/cyfitter_cfg.c **** #define BS_UDB_2_0_HV_ROUTING_VAL ((const uint8 CYFAR *)0x480006B8u)
 201:.\Generated_Source\PSoC5/cyfitter_cfg.c **** 
 202:.\Generated_Source\PSoC5/cyfitter_cfg.c **** /* DSI3_0_HV_ROUTING Address: CYDEV_UCFG_DSI9_BASE + 0x00000080u Size (bytes): 128 */
 203:.\Generated_Source\PSoC5/cyfitter_cfg.c **** #define BS_DSI3_0_HV_ROUTING_VAL ((const uint8 CYFAR *)0x48000738u)
 204:.\Generated_Source\PSoC5/cyfitter_cfg.c **** 
 205:.\Generated_Source\PSoC5/cyfitter_cfg.c **** /* DSISWITCH_1_1 Address: CYDEV_UCFG_DSI8_BASE Size (bytes): 128 */
 206:.\Generated_Source\PSoC5/cyfitter_cfg.c **** #define BS_DSISWITCH_1_1_VAL ((const uint8 CYFAR *)0x480007B8u)
 207:.\Generated_Source\PSoC5/cyfitter_cfg.c **** 
 208:.\Generated_Source\PSoC5/cyfitter_cfg.c **** /* DSI3_1_HV_ROUTING Address: CYDEV_UCFG_DSI8_BASE + 0x00000080u Size (bytes): 128 */
 209:.\Generated_Source\PSoC5/cyfitter_cfg.c **** #define BS_DSI3_1_HV_ROUTING_VAL ((const uint8 CYFAR *)0x48000838u)
 210:.\Generated_Source\PSoC5/cyfitter_cfg.c **** 
 211:.\Generated_Source\PSoC5/cyfitter_cfg.c **** /* IOPINS0_0 Address: CYREG_PRT0_DM0 Size (bytes): 8 */
 212:.\Generated_Source\PSoC5/cyfitter_cfg.c **** #define BS_IOPINS0_0_VAL ((const uint8 CYFAR *)0x480008B8u)
 213:.\Generated_Source\PSoC5/cyfitter_cfg.c **** 
 214:.\Generated_Source\PSoC5/cyfitter_cfg.c **** /* IOPINS0_7 Address: CYREG_PRT12_DR Size (bytes): 10 */
 215:.\Generated_Source\PSoC5/cyfitter_cfg.c **** #define BS_IOPINS0_7_VAL ((const uint8 CYFAR *)0x480008C0u)
 216:.\Generated_Source\PSoC5/cyfitter_cfg.c **** 
 217:.\Generated_Source\PSoC5/cyfitter_cfg.c **** /* CYDEV_CLKDIST_ACFG0_CFG0 Address: CYREG_CLKDIST_ACFG0_CFG0 Size (bytes): 4 */
 218:.\Generated_Source\PSoC5/cyfitter_cfg.c **** #define BS_CYDEV_CLKDIST_ACFG0_CFG0_VAL ((const uint8 CYFAR *)0x480008CCu)
 219:.\Generated_Source\PSoC5/cyfitter_cfg.c **** 
 220:.\Generated_Source\PSoC5/cyfitter_cfg.c **** 
 221:.\Generated_Source\PSoC5/cyfitter_cfg.c **** /*******************************************************************************
 222:.\Generated_Source\PSoC5/cyfitter_cfg.c **** * Function Name: cfg_dma_init
 223:.\Generated_Source\PSoC5/cyfitter_cfg.c **** ********************************************************************************
 224:.\Generated_Source\PSoC5/cyfitter_cfg.c **** * Summary:
 225:.\Generated_Source\PSoC5/cyfitter_cfg.c **** *  This function is used to copy device configuration data from constant values
 226:.\Generated_Source\PSoC5/cyfitter_cfg.c **** *  stored in memory into the proper chip configuration registers using DMA.  It
 227:.\Generated_Source\PSoC5/cyfitter_cfg.c **** *  pulls data out of the CFG_TD_LISTs to know exactly how/what to configure.
 228:.\Generated_Source\PSoC5/cyfitter_cfg.c **** *
 229:.\Generated_Source\PSoC5/cyfitter_cfg.c **** * Parameters:  
 230:.\Generated_Source\PSoC5/cyfitter_cfg.c **** *   void
 231:.\Generated_Source\PSoC5/cyfitter_cfg.c **** *
 232:.\Generated_Source\PSoC5/cyfitter_cfg.c **** * Return:
 233:.\Generated_Source\PSoC5/cyfitter_cfg.c **** *   void
 234:.\Generated_Source\PSoC5/cyfitter_cfg.c **** *
 235:.\Generated_Source\PSoC5/cyfitter_cfg.c **** *******************************************************************************/
 236:.\Generated_Source\PSoC5/cyfitter_cfg.c **** static void cfg_dma_init(void);
 237:.\Generated_Source\PSoC5/cyfitter_cfg.c **** static void cfg_dma_init(void)
ARM GAS  C:\Users\nm\AppData\Local\Temp\ccfftuKh.s 			page 8


 238:.\Generated_Source\PSoC5/cyfitter_cfg.c **** {
 163              		.loc 1 238 0
 164              		.cfi_startproc
 165              		@ args = 0, pretend = 0, frame = 8
 166              		@ frame_needed = 1, uses_anonymous_args = 0
 167              		@ link register save eliminated.
 168 0000 80B4     		push	{r7}
 169              		.cfi_def_cfa_offset 4
 170              		.cfi_offset 7, -4
 171 0002 83B0     		sub	sp, sp, #12
 172              		.cfi_def_cfa_offset 16
 173 0004 00AF     		add	r7, sp, #0
 174              		.cfi_def_cfa_register 7
 239:.\Generated_Source\PSoC5/cyfitter_cfg.c **** 	/* TD structure for little-endian systems. Does not require endian swap */
 240:.\Generated_Source\PSoC5/cyfitter_cfg.c **** 	CYPACKED struct td_t {
 241:.\Generated_Source\PSoC5/cyfitter_cfg.c **** 		uint16 size;
 242:.\Generated_Source\PSoC5/cyfitter_cfg.c **** 		uint8 next_td_ptr;
 243:.\Generated_Source\PSoC5/cyfitter_cfg.c **** 		uint8 flags;
 244:.\Generated_Source\PSoC5/cyfitter_cfg.c **** 		uint16 src;
 245:.\Generated_Source\PSoC5/cyfitter_cfg.c **** 		uint16 dest;
 246:.\Generated_Source\PSoC5/cyfitter_cfg.c **** 	} CYPACKED_ATTR;
 247:.\Generated_Source\PSoC5/cyfitter_cfg.c **** 
 248:.\Generated_Source\PSoC5/cyfitter_cfg.c **** 	/* PHUB_CH1_CFGMEM_CFG0/1 initialization data */
 249:.\Generated_Source\PSoC5/cyfitter_cfg.c **** 	DMAINITSEC static const uint8 CYCODE CH1_ADDR_DATA0[] = { 0x01u, 0x00u, 0x00u, 0x00u, 0x00u, 0x20u
 250:.\Generated_Source\PSoC5/cyfitter_cfg.c **** 
 251:.\Generated_Source\PSoC5/cyfitter_cfg.c **** 	/* PHUB_CH2_CFGMEM_CFG0/1 initialization data */
 252:.\Generated_Source\PSoC5/cyfitter_cfg.c **** 	DMAINITSEC static const uint8 CYCODE CH2_ADDR_DATA0[] = { 0x01u, 0x00u, 0x00u, 0x00u, 0x00u, 0x20u
 253:.\Generated_Source\PSoC5/cyfitter_cfg.c **** 
 254:.\Generated_Source\PSoC5/cyfitter_cfg.c **** 	/* PHUB_CH5_CFGMEM_CFG0/1 initialization data */
 255:.\Generated_Source\PSoC5/cyfitter_cfg.c **** 	DMAINITSEC static const uint8 CYCODE CH5_ADDR_DATA0[] = { 0x01u, 0x00u, 0x00u, 0x00u, 0x00u, 0x48u
 256:.\Generated_Source\PSoC5/cyfitter_cfg.c **** 
 257:.\Generated_Source\PSoC5/cyfitter_cfg.c **** 	/* PHUB_CH6_CFGMEM_CFG0/1 initialization data */
 258:.\Generated_Source\PSoC5/cyfitter_cfg.c **** 	DMAINITSEC static const uint8 CYCODE CH6_ADDR_DATA0[] = { 0x01u, 0x00u, 0x00u, 0x00u, 0x00u, 0x48u
 259:.\Generated_Source\PSoC5/cyfitter_cfg.c **** 
 260:.\Generated_Source\PSoC5/cyfitter_cfg.c **** 	/* Initialization data for each DMA channel's TD registers */
 261:.\Generated_Source\PSoC5/cyfitter_cfg.c **** 	DMAINITSEC static const uint8 CYCODE DMA_TD_START_CMD[] = { 0x01u, 0x00u, 0x00u, 0x00u, 0x01u };
 262:.\Generated_Source\PSoC5/cyfitter_cfg.c **** 
 263:.\Generated_Source\PSoC5/cyfitter_cfg.c **** 	CYALIGNED static uint32 CYXDATA DMA_ZERO_VAL;
 264:.\Generated_Source\PSoC5/cyfitter_cfg.c **** 
 265:.\Generated_Source\PSoC5/cyfitter_cfg.c **** 	/* This table holds all of the initialization data necessary for the DMA
 266:.\Generated_Source\PSoC5/cyfitter_cfg.c **** 	   process to transfer data from the source location to the destination. */
 267:.\Generated_Source\PSoC5/cyfitter_cfg.c **** 	/* Source addresses can be relocated, but only when in 32bit addresses.
 268:.\Generated_Source\PSoC5/cyfitter_cfg.c **** 	   Because the standard TD table only has 16bit addresses, we generate a
 269:.\Generated_Source\PSoC5/cyfitter_cfg.c **** 	   separate CFG_TD_ADDR table for the source addresses that supports 32bit
 270:.\Generated_Source\PSoC5/cyfitter_cfg.c **** 	   addresses. */
 271:.\Generated_Source\PSoC5/cyfitter_cfg.c **** 	DMAINITSEC static const struct td_t CYCODE CFG_TD_LIST0[] = {
 272:.\Generated_Source\PSoC5/cyfitter_cfg.c **** 		/* Size, Next, Flags, Source, Destination */
 273:.\Generated_Source\PSoC5/cyfitter_cfg.c **** 		{ 8u, 0x02u, 0x23u, (uint16)(uint32)(0u), (uint16)(CYREG_PHUB_CFGMEM1_CFG0) },	/* TD 1 */
 274:.\Generated_Source\PSoC5/cyfitter_cfg.c **** 		{ 8u, 0x03u, 0x23u, (uint16)(uint32)(0u), (uint16)(CYREG_PHUB_CFGMEM2_CFG0) },	/* TD 2 */
 275:.\Generated_Source\PSoC5/cyfitter_cfg.c **** 		{ 8u, 0x04u, 0x23u, (uint16)(uint32)(0u), (uint16)(CYREG_PHUB_CFGMEM5_CFG0) },	/* TD 3 */
 276:.\Generated_Source\PSoC5/cyfitter_cfg.c **** 		{ 8u, 0x05u, 0x23u, (uint16)(uint32)(0u), (uint16)(CYREG_PHUB_CFGMEM6_CFG0) },	/* TD 4 */
 277:.\Generated_Source\PSoC5/cyfitter_cfg.c **** 		{ 5u, 0x06u, 0x23u, (uint16)(uint32)(0u), (uint16)(CYREG_PHUB_CH1_BASIC_CFG) },	/* TD 5 */
 278:.\Generated_Source\PSoC5/cyfitter_cfg.c **** 		{ 5u, 0x07u, 0x23u, (uint16)(uint32)(0u), (uint16)(CYREG_PHUB_CH2_BASIC_CFG) },	/* TD 6 */
 279:.\Generated_Source\PSoC5/cyfitter_cfg.c **** 		{ 5u, 0x08u, 0x23u, (uint16)(uint32)(0u), (uint16)(CYREG_PHUB_CH5_BASIC_CFG) },	/* TD 7 */
 280:.\Generated_Source\PSoC5/cyfitter_cfg.c **** 		{ 5u, 0xFEu, 0x23u, (uint16)(uint32)(0u), (uint16)(CYREG_PHUB_CH6_BASIC_CFG) },	/* TD 8 */
 281:.\Generated_Source\PSoC5/cyfitter_cfg.c **** 		{ 96u, 0x0Au, 0x22u, (uint16)(uint32)(0u), (uint16)(CYREG_PRT1_DR) },	/* TD 9 */
 282:.\Generated_Source\PSoC5/cyfitter_cfg.c **** 		{ 16u, 0xFEu, 0x22u, (uint16)(uint32)(0u), (uint16)(CYREG_PRT15_DR) },	/* TD 10 */
ARM GAS  C:\Users\nm\AppData\Local\Temp\ccfftuKh.s 			page 9


 283:.\Generated_Source\PSoC5/cyfitter_cfg.c **** 		{ 4095u, 0x0Cu, 0x22u, (uint16)(uint32)(0u), (uint16)(CYDEV_UCFG_B0_P0_U0_BASE) },	/* TD 11 */
 284:.\Generated_Source\PSoC5/cyfitter_cfg.c **** 		{ 1u, 0x0Du, 0x22u, (uint16)(uint32)(0u), (uint16)(CYDEV_UCFG_B0_P7_ROUTE_BASE + 0x00000080u + 0x
 285:.\Generated_Source\PSoC5/cyfitter_cfg.c **** 		{ 384u, 0x0Eu, 0x22u, (uint16)(uint32)(0u), (uint16)(CYDEV_UCFG_B1_P2_U0_BASE) },	/* TD 13 */
 286:.\Generated_Source\PSoC5/cyfitter_cfg.c **** 		{ 1024u, 0x0Fu, 0x22u, (uint16)(uint32)(0u), (uint16)(CYDEV_UCFG_B1_P3_U0_BASE) },	/* TD 14 */
 287:.\Generated_Source\PSoC5/cyfitter_cfg.c **** 		{ 1024u, 0x10u, 0x22u, (uint16)(uint32)(0u), (uint16)(CYDEV_UCFG_DSI0_BASE) },	/* TD 15 */
 288:.\Generated_Source\PSoC5/cyfitter_cfg.c **** 		{ 128u, 0x11u, 0x22u, (uint16)(uint32)(0u), (uint16)(CYDEV_UCFG_DSI5_BASE) },	/* TD 16 */
 289:.\Generated_Source\PSoC5/cyfitter_cfg.c **** 		{ 128u, 0x12u, 0x22u, (uint16)(uint32)(0u), (uint16)(CYDEV_UCFG_DSI7_BASE) },	/* TD 17 */
 290:.\Generated_Source\PSoC5/cyfitter_cfg.c **** 		{ 128u, 0x13u, 0x22u, (uint16)(uint32)(0u), (uint16)(CYDEV_UCFG_DSI9_BASE) },	/* TD 18 */
 291:.\Generated_Source\PSoC5/cyfitter_cfg.c **** 		{ 128u, 0x14u, 0x22u, (uint16)(uint32)(0u), (uint16)(CYDEV_UCFG_DSI12_BASE) },	/* TD 19 */
 292:.\Generated_Source\PSoC5/cyfitter_cfg.c **** 		{ 16u, 0xFEu, 0x22u, (uint16)(uint32)(0u), (uint16)(CYREG_BCTL0_MDCLK_EN) },	/* TD 20 */
 293:.\Generated_Source\PSoC5/cyfitter_cfg.c **** 		{ 6u, 0x16u, 0x23u, (uint16)(uint32)(0u), (uint16)(CYDEV_PRTDSI_PRT12_BASE) },	/* TD 21 */
 294:.\Generated_Source\PSoC5/cyfitter_cfg.c **** 		{ 32u, 0xFEu, 0x23u, (uint16)(uint32)(0u), (uint16)(CYDEV_UWRK_UWRK8_B1_BASE + 0x00000070u) },	/*
 295:.\Generated_Source\PSoC5/cyfitter_cfg.c **** 		{ 128u, 0x18u, 0x23u, (uint16)(uint32)(0u), (uint16)(CYDEV_UCFG_B1_P5_U0_BASE) },	/* TD 23 */
 296:.\Generated_Source\PSoC5/cyfitter_cfg.c **** 		{ 128u, 0x19u, 0x23u, (uint16)(uint32)(0u), (uint16)(CYDEV_UCFG_B1_P5_U1_BASE) },	/* TD 24 */
 297:.\Generated_Source\PSoC5/cyfitter_cfg.c **** 		{ 16u, 0x1Au, 0x23u, (uint16)(uint32)(0u), (uint16)(CYREG_BCTL1_MDCLK_EN) },	/* TD 25 */
 298:.\Generated_Source\PSoC5/cyfitter_cfg.c **** 		{ 128u, 0x1Bu, 0x23u, (uint16)(uint32)(0u), (uint16)(CYDEV_UCFG_DSI13_BASE) },	/* TD 26 */
 299:.\Generated_Source\PSoC5/cyfitter_cfg.c **** 		{ 128u, 0x1Cu, 0x23u, (uint16)(uint32)(0u), (uint16)(CYDEV_UCFG_DSI13_BASE + 0x00000080u) },	/* T
 300:.\Generated_Source\PSoC5/cyfitter_cfg.c **** 		{ 128u, 0x1Du, 0x23u, (uint16)(uint32)(0u), (uint16)(CYDEV_UCFG_DSI12_BASE + 0x00000080u) },	/* T
 301:.\Generated_Source\PSoC5/cyfitter_cfg.c **** 		{ 128u, 0x1Eu, 0x23u, (uint16)(uint32)(0u), (uint16)(CYDEV_UCFG_DSI7_BASE + 0x00000080u) },	/* TD
 302:.\Generated_Source\PSoC5/cyfitter_cfg.c **** 		{ 128u, 0x1Fu, 0x23u, (uint16)(uint32)(0u), (uint16)(CYDEV_UCFG_DSI6_BASE) },	/* TD 30 */
 303:.\Generated_Source\PSoC5/cyfitter_cfg.c **** 		{ 128u, 0x20u, 0x23u, (uint16)(uint32)(0u), (uint16)(CYDEV_UCFG_DSI6_BASE + 0x00000080u) },	/* TD
 304:.\Generated_Source\PSoC5/cyfitter_cfg.c **** 		{ 128u, 0x21u, 0x23u, (uint16)(uint32)(0u), (uint16)(CYDEV_UCFG_DSI5_BASE + 0x00000080u) },	/* TD
 305:.\Generated_Source\PSoC5/cyfitter_cfg.c **** 		{ 128u, 0x22u, 0x23u, (uint16)(uint32)(0u), (uint16)(CYDEV_UCFG_DSI4_BASE) },	/* TD 33 */
 306:.\Generated_Source\PSoC5/cyfitter_cfg.c **** 		{ 128u, 0x23u, 0x23u, (uint16)(uint32)(0u), (uint16)(CYDEV_UCFG_DSI4_BASE + 0x00000080u) },	/* TD
 307:.\Generated_Source\PSoC5/cyfitter_cfg.c **** 		{ 128u, 0x24u, 0x23u, (uint16)(uint32)(0u), (uint16)(CYDEV_UCFG_B1_P5_ROUTE_BASE) },	/* TD 35 */
 308:.\Generated_Source\PSoC5/cyfitter_cfg.c **** 		{ 128u, 0x25u, 0x23u, (uint16)(uint32)(0u), (uint16)(CYDEV_UCFG_B1_P5_ROUTE_BASE + 0x00000080u) }
 309:.\Generated_Source\PSoC5/cyfitter_cfg.c **** 		{ 128u, 0x26u, 0x23u, (uint16)(uint32)(0u), (uint16)(CYDEV_UCFG_B1_P2_ROUTE_BASE + 0x00000080u) }
 310:.\Generated_Source\PSoC5/cyfitter_cfg.c **** 		{ 128u, 0x27u, 0x23u, (uint16)(uint32)(0u), (uint16)(CYDEV_UCFG_DSI9_BASE + 0x00000080u) },	/* TD
 311:.\Generated_Source\PSoC5/cyfitter_cfg.c **** 		{ 128u, 0x28u, 0x23u, (uint16)(uint32)(0u), (uint16)(CYDEV_UCFG_DSI8_BASE) },	/* TD 39 */
 312:.\Generated_Source\PSoC5/cyfitter_cfg.c **** 		{ 128u, 0xFEu, 0x23u, (uint16)(uint32)(0u), (uint16)(CYDEV_UCFG_DSI8_BASE + 0x00000080u) },	/* TD
 313:.\Generated_Source\PSoC5/cyfitter_cfg.c **** 	};
 314:.\Generated_Source\PSoC5/cyfitter_cfg.c **** 
 315:.\Generated_Source\PSoC5/cyfitter_cfg.c **** 	/* Source addresses can be relocated, but only when in 32bit addresses.
 316:.\Generated_Source\PSoC5/cyfitter_cfg.c **** 	   Because the standard TD table only has 16bit addresses, we generate a
 317:.\Generated_Source\PSoC5/cyfitter_cfg.c **** 	   separate table for the source addresses that does use 32bit addresses. This
 318:.\Generated_Source\PSoC5/cyfitter_cfg.c **** 	   table will be re-merged with the corresponding CFG_TD_LIST table during
 319:.\Generated_Source\PSoC5/cyfitter_cfg.c **** 	   initialization. */
 320:.\Generated_Source\PSoC5/cyfitter_cfg.c **** 	static const void * const CFG_TD_ADDR0[] = {
 321:.\Generated_Source\PSoC5/cyfitter_cfg.c **** 		(const void *)(CH1_ADDR_DATA0),	/* TD 1 */
 322:.\Generated_Source\PSoC5/cyfitter_cfg.c **** 		(const void *)(CH2_ADDR_DATA0),	/* TD 2 */
 323:.\Generated_Source\PSoC5/cyfitter_cfg.c **** 		(const void *)(CH5_ADDR_DATA0),	/* TD 3 */
 324:.\Generated_Source\PSoC5/cyfitter_cfg.c **** 		(const void *)(CH6_ADDR_DATA0),	/* TD 4 */
 325:.\Generated_Source\PSoC5/cyfitter_cfg.c **** 		(const void *)(DMA_TD_START_CMD),	/* TD 5 */
 326:.\Generated_Source\PSoC5/cyfitter_cfg.c **** 		(const void *)(DMA_TD_START_CMD),	/* TD 6 */
 327:.\Generated_Source\PSoC5/cyfitter_cfg.c **** 		(const void *)(DMA_TD_START_CMD),	/* TD 7 */
 328:.\Generated_Source\PSoC5/cyfitter_cfg.c **** 		(const void *)(DMA_TD_START_CMD),	/* TD 8 */
 329:.\Generated_Source\PSoC5/cyfitter_cfg.c **** 		(const void *)(&DMA_ZERO_VAL),	/* TD 9 */
 330:.\Generated_Source\PSoC5/cyfitter_cfg.c **** 		(const void *)(&DMA_ZERO_VAL),	/* TD 10 */
 331:.\Generated_Source\PSoC5/cyfitter_cfg.c **** 		(const void *)(&DMA_ZERO_VAL),	/* TD 11 */
 332:.\Generated_Source\PSoC5/cyfitter_cfg.c **** 		(const void *)(&DMA_ZERO_VAL),	/* TD 12 */
 333:.\Generated_Source\PSoC5/cyfitter_cfg.c **** 		(const void *)(&DMA_ZERO_VAL),	/* TD 13 */
 334:.\Generated_Source\PSoC5/cyfitter_cfg.c **** 		(const void *)(&DMA_ZERO_VAL),	/* TD 14 */
 335:.\Generated_Source\PSoC5/cyfitter_cfg.c **** 		(const void *)(&DMA_ZERO_VAL),	/* TD 15 */
 336:.\Generated_Source\PSoC5/cyfitter_cfg.c **** 		(const void *)(&DMA_ZERO_VAL),	/* TD 16 */
 337:.\Generated_Source\PSoC5/cyfitter_cfg.c **** 		(const void *)(&DMA_ZERO_VAL),	/* TD 17 */
 338:.\Generated_Source\PSoC5/cyfitter_cfg.c **** 		(const void *)(&DMA_ZERO_VAL),	/* TD 18 */
 339:.\Generated_Source\PSoC5/cyfitter_cfg.c **** 		(const void *)(&DMA_ZERO_VAL),	/* TD 19 */
ARM GAS  C:\Users\nm\AppData\Local\Temp\ccfftuKh.s 			page 10


 340:.\Generated_Source\PSoC5/cyfitter_cfg.c **** 		(const void *)(&DMA_ZERO_VAL),	/* TD 20 */
 341:.\Generated_Source\PSoC5/cyfitter_cfg.c **** 		(const void *)(BS_IOPORT_7_VAL),	/* TD 21 */
 342:.\Generated_Source\PSoC5/cyfitter_cfg.c **** 		(const void *)(BS_UWRK_B1_WRK_STATCTL_BITS_VAL),	/* TD 22 */
 343:.\Generated_Source\PSoC5/cyfitter_cfg.c **** 		(const void *)(BS_UDB_0_0_0_CONFIG_VAL),	/* TD 23 */
 344:.\Generated_Source\PSoC5/cyfitter_cfg.c **** 		(const void *)(BS_UDB_0_0_1_CONFIG_VAL),	/* TD 24 */
 345:.\Generated_Source\PSoC5/cyfitter_cfg.c **** 		(const void *)(BS_UCFG_BCTL1_VAL),	/* TD 25 */
 346:.\Generated_Source\PSoC5/cyfitter_cfg.c **** 		(const void *)(BS_DSISWITCH_0_0_VAL),	/* TD 26 */
 347:.\Generated_Source\PSoC5/cyfitter_cfg.c **** 		(const void *)(BS_DSI0_0_HV_ROUTING_VAL),	/* TD 27 */
 348:.\Generated_Source\PSoC5/cyfitter_cfg.c **** 		(const void *)(BS_DSI0_1_HV_ROUTING_VAL),	/* TD 28 */
 349:.\Generated_Source\PSoC5/cyfitter_cfg.c **** 		(const void *)(BS_DSI0_2_HV_ROUTING_VAL),	/* TD 29 */
 350:.\Generated_Source\PSoC5/cyfitter_cfg.c **** 		(const void *)(BS_DSISWITCH_0_3_VAL),	/* TD 30 */
 351:.\Generated_Source\PSoC5/cyfitter_cfg.c **** 		(const void *)(BS_DSI0_3_HV_ROUTING_VAL),	/* TD 31 */
 352:.\Generated_Source\PSoC5/cyfitter_cfg.c **** 		(const void *)(BS_DSI0_4_HV_ROUTING_VAL),	/* TD 32 */
 353:.\Generated_Source\PSoC5/cyfitter_cfg.c **** 		(const void *)(BS_DSISWITCH_0_5_VAL),	/* TD 33 */
 354:.\Generated_Source\PSoC5/cyfitter_cfg.c **** 		(const void *)(BS_DSI0_5_HV_ROUTING_VAL),	/* TD 34 */
 355:.\Generated_Source\PSoC5/cyfitter_cfg.c **** 		(const void *)(BS_UDBSWITCH_0_0_VAL),	/* TD 35 */
 356:.\Generated_Source\PSoC5/cyfitter_cfg.c **** 		(const void *)(BS_UDB_1_0_HV_ROUTING_VAL),	/* TD 36 */
 357:.\Generated_Source\PSoC5/cyfitter_cfg.c **** 		(const void *)(BS_UDB_2_0_HV_ROUTING_VAL),	/* TD 37 */
 358:.\Generated_Source\PSoC5/cyfitter_cfg.c **** 		(const void *)(BS_DSI3_0_HV_ROUTING_VAL),	/* TD 38 */
 359:.\Generated_Source\PSoC5/cyfitter_cfg.c **** 		(const void *)(BS_DSISWITCH_1_1_VAL),	/* TD 39 */
 360:.\Generated_Source\PSoC5/cyfitter_cfg.c **** 		(const void *)(BS_DSI3_1_HV_ROUTING_VAL),	/* TD 40 */
 361:.\Generated_Source\PSoC5/cyfitter_cfg.c **** 	};
 362:.\Generated_Source\PSoC5/cyfitter_cfg.c **** 
 363:.\Generated_Source\PSoC5/cyfitter_cfg.c **** 
 364:.\Generated_Source\PSoC5/cyfitter_cfg.c **** 	uint32 i;
 365:.\Generated_Source\PSoC5/cyfitter_cfg.c **** 
 366:.\Generated_Source\PSoC5/cyfitter_cfg.c **** 	DMA_ZERO_VAL = 0u;
 175              		.loc 1 366 0
 176 0006 434B     		ldr	r3, .L15
 177 0008 0022     		movs	r2, #0
 178 000a 1A60     		str	r2, [r3]
 367:.\Generated_Source\PSoC5/cyfitter_cfg.c **** 	CY_SET_REG8((void CYXDATA *)CYREG_PHUB_CFGMEM0_CFG0, 0x10u);	/* set burstcnt */
 179              		.loc 1 367 0
 180 000c 424B     		ldr	r3, .L15+4
 181 000e 1022     		movs	r2, #16
 182 0010 1A70     		strb	r2, [r3]
 368:.\Generated_Source\PSoC5/cyfitter_cfg.c **** 	CY_SET_REG8((void CYXDATA *)CYREG_PHUB_CH0_BASIC_CFG, 0x01u);	/* enable ch0 */
 183              		.loc 1 368 0
 184 0012 424B     		ldr	r3, .L15+8
 185 0014 0122     		movs	r2, #1
 186 0016 1A70     		strb	r2, [r3]
 369:.\Generated_Source\PSoC5/cyfitter_cfg.c **** 	CY_SET_REG8((void CYXDATA *)(CYREG_PHUB_CH0_BASIC_STATUS+1u), 0x00u);	/* set first TD to 0 */
 187              		.loc 1 369 0
 188 0018 414B     		ldr	r3, .L15+12
 189 001a 0022     		movs	r2, #0
 190 001c 1A70     		strb	r2, [r3]
 370:.\Generated_Source\PSoC5/cyfitter_cfg.c **** 	CY_SET_REG16((void CYXDATA *)CYREG_PHUB_TDMEM0_ORIG_TD0, 40u*8u);	/* transfer size */
 191              		.loc 1 370 0
 192 001e 414B     		ldr	r3, .L15+16
 193 0020 4FF4A072 		mov	r2, #320
 194 0024 1A80     		strh	r2, [r3]	@ movhi
 371:.\Generated_Source\PSoC5/cyfitter_cfg.c **** 	CY_SET_REG8((void CYXDATA *)(CYREG_PHUB_TDMEM0_ORIG_TD0+2u), 0x01u);	/* set next TD to 1 */
 195              		.loc 1 371 0
 196 0026 404B     		ldr	r3, .L15+20
 197 0028 0122     		movs	r2, #1
 198 002a 1A70     		strb	r2, [r3]
 372:.\Generated_Source\PSoC5/cyfitter_cfg.c **** 	CY_SET_REG8((void CYXDATA *)(CYREG_PHUB_TDMEM0_ORIG_TD0+3u), 0x03u);	/* set TD flags */
ARM GAS  C:\Users\nm\AppData\Local\Temp\ccfftuKh.s 			page 11


 199              		.loc 1 372 0
 200 002c 3F4B     		ldr	r3, .L15+24
 201 002e 0322     		movs	r2, #3
 202 0030 1A70     		strb	r2, [r3]
 373:.\Generated_Source\PSoC5/cyfitter_cfg.c **** 	CY_SET_REG16((void CYXDATA *)CYREG_PHUB_TDMEM0_ORIG_TD1, (uint16)((uint32)CFG_TD_LIST0 & 0x0000FFF
 203              		.loc 1 373 0
 204 0032 3F4B     		ldr	r3, .L15+28
 205 0034 3F4A     		ldr	r2, .L15+32
 206 0036 92B2     		uxth	r2, r2
 207 0038 1A80     		strh	r2, [r3]	@ movhi
 374:.\Generated_Source\PSoC5/cyfitter_cfg.c **** 	CY_SET_REG16((void CYXDATA *)(CYREG_PHUB_TDMEM0_ORIG_TD1+2u), CYDEV_PHUB_TDMEM1_BASE);	/* set td0'
 208              		.loc 1 374 0
 209 003a 3F4B     		ldr	r3, .L15+36
 210 003c 47F60802 		movw	r2, #30728
 211 0040 1A80     		strh	r2, [r3]	@ movhi
 375:.\Generated_Source\PSoC5/cyfitter_cfg.c **** 	CY_SET_REG16((void CYXDATA *)CYREG_PHUB_CFGMEM0_CFG1, (uint16)(CYDEV_FLASH_BASE >> 16));	/* set ch
 212              		.loc 1 375 0
 213 0042 3E4B     		ldr	r3, .L15+40
 214 0044 0022     		movs	r2, #0
 215 0046 1A80     		strh	r2, [r3]	@ movhi
 376:.\Generated_Source\PSoC5/cyfitter_cfg.c **** 	CY_SET_REG16((void CYXDATA *)(CYREG_PHUB_CFGMEM0_CFG1+2u), (uint16)(CYDEV_PHUB_TDMEM1_BASE >> 16))
 216              		.loc 1 376 0
 217 0048 3D4B     		ldr	r3, .L15+44
 218 004a 4FF48042 		mov	r2, #16384
 219 004e 1A80     		strh	r2, [r3]	@ movhi
 377:.\Generated_Source\PSoC5/cyfitter_cfg.c **** 	CY_SET_REG8((void CYXDATA *)(CYREG_PHUB_CH1_BASIC_STATUS+1u), 0x09u);	/* ch1 first TD: 9 */
 220              		.loc 1 377 0
 221 0050 3C4B     		ldr	r3, .L15+48
 222 0052 0922     		movs	r2, #9
 223 0054 1A70     		strb	r2, [r3]
 378:.\Generated_Source\PSoC5/cyfitter_cfg.c **** 	CY_SET_REG8((void CYXDATA *)(CYREG_PHUB_CH2_BASIC_STATUS+1u), 0x0Bu);	/* ch2 first TD: 11 */
 224              		.loc 1 378 0
 225 0056 3C4B     		ldr	r3, .L15+52
 226 0058 0B22     		movs	r2, #11
 227 005a 1A70     		strb	r2, [r3]
 379:.\Generated_Source\PSoC5/cyfitter_cfg.c **** 	CY_SET_REG8((void CYXDATA *)(CYREG_PHUB_CH5_BASIC_STATUS+1u), 0x15u);	/* ch5 first TD: 21 */
 228              		.loc 1 379 0
 229 005c 3B4B     		ldr	r3, .L15+56
 230 005e 1522     		movs	r2, #21
 231 0060 1A70     		strb	r2, [r3]
 380:.\Generated_Source\PSoC5/cyfitter_cfg.c **** 	CY_SET_REG8((void CYXDATA *)(CYREG_PHUB_CH6_BASIC_STATUS+1u), 0x17u);	/* ch6 first TD: 23 */
 232              		.loc 1 380 0
 233 0062 3B4B     		ldr	r3, .L15+60
 234 0064 1722     		movs	r2, #23
 235 0066 1A70     		strb	r2, [r3]
 381:.\Generated_Source\PSoC5/cyfitter_cfg.c **** 
 382:.\Generated_Source\PSoC5/cyfitter_cfg.c **** 	CY_CFG_MEMORY_BARRIER();
 236              		.loc 1 382 0
 237 0068 BFF35F8F 		dmb	sy
 383:.\Generated_Source\PSoC5/cyfitter_cfg.c **** 	CY_SET_REG8((void CYXDATA *)CYREG_PHUB_CH0_ACTION, 0x01u); /* cpu_req */
 238              		.loc 1 383 0
 239 006c 394B     		ldr	r3, .L15+64
 240 006e 0122     		movs	r2, #1
 241 0070 1A70     		strb	r2, [r3]
 384:.\Generated_Source\PSoC5/cyfitter_cfg.c **** 	CY_CFG_MEMORY_BARRIER();
 242              		.loc 1 384 0
 243 0072 BFF35F8F 		dmb	sy
ARM GAS  C:\Users\nm\AppData\Local\Temp\ccfftuKh.s 			page 12


 385:.\Generated_Source\PSoC5/cyfitter_cfg.c **** 
 386:.\Generated_Source\PSoC5/cyfitter_cfg.c **** 	/* Wait for TDs to be copied into TDMEM */
 387:.\Generated_Source\PSoC5/cyfitter_cfg.c **** 	while (CY_GET_REG16((void CYXDATA *)CYREG_PHUB_TDMEM0_ORIG_TD0) != 0u) { }
 244              		.loc 1 387 0
 245 0076 00BF     		nop
 246              	.L7:
 247              		.loc 1 387 0 is_stmt 0 discriminator 1
 248 0078 2A4B     		ldr	r3, .L15+16
 249 007a 1B88     		ldrh	r3, [r3]	@ movhi
 250 007c 9BB2     		uxth	r3, r3
 251 007e 002B     		cmp	r3, #0
 252 0080 FAD1     		bne	.L7
 388:.\Generated_Source\PSoC5/cyfitter_cfg.c **** 
 389:.\Generated_Source\PSoC5/cyfitter_cfg.c **** 	/* Recombine TD source table (CFG_TD_ADDR0) with full TD table (CFG_TD_LIST0) */
 390:.\Generated_Source\PSoC5/cyfitter_cfg.c **** 	for (i = 0u; i < 40u; i++)
 253              		.loc 1 390 0 is_stmt 1
 254 0082 0023     		movs	r3, #0
 255 0084 7B60     		str	r3, [r7, #4]
 256 0086 0DE0     		b	.L8
 257              	.L9:
 391:.\Generated_Source\PSoC5/cyfitter_cfg.c **** 	{
 392:.\Generated_Source\PSoC5/cyfitter_cfg.c **** 		CY_SET_REG16((void CYXDATA *)(CYREG_PHUB_TDMEM1_ORIG_TD1 + (sizeof(struct td_t)*i)), (uint16)(uin
 258              		.loc 1 392 0 discriminator 3
 259 0088 7B68     		ldr	r3, [r7, #4]
 260 008a DA00     		lsls	r2, r3, #3
 261 008c 324B     		ldr	r3, .L15+68
 262 008e 1344     		add	r3, r3, r2
 263 0090 1946     		mov	r1, r3
 264 0092 324A     		ldr	r2, .L15+72
 265 0094 7B68     		ldr	r3, [r7, #4]
 266 0096 52F82330 		ldr	r3, [r2, r3, lsl #2]
 267 009a 9BB2     		uxth	r3, r3
 268 009c 0B80     		strh	r3, [r1]	@ movhi
 390:.\Generated_Source\PSoC5/cyfitter_cfg.c **** 	{
 269              		.loc 1 390 0 discriminator 3
 270 009e 7B68     		ldr	r3, [r7, #4]
 271 00a0 0133     		adds	r3, r3, #1
 272 00a2 7B60     		str	r3, [r7, #4]
 273              	.L8:
 390:.\Generated_Source\PSoC5/cyfitter_cfg.c **** 	{
 274              		.loc 1 390 0 is_stmt 0 discriminator 1
 275 00a4 7B68     		ldr	r3, [r7, #4]
 276 00a6 272B     		cmp	r3, #39
 277 00a8 EED9     		bls	.L9
 393:.\Generated_Source\PSoC5/cyfitter_cfg.c **** 	}
 394:.\Generated_Source\PSoC5/cyfitter_cfg.c **** 
 395:.\Generated_Source\PSoC5/cyfitter_cfg.c **** 	CY_CFG_MEMORY_BARRIER();
 278              		.loc 1 395 0 is_stmt 1
 279 00aa BFF35F8F 		dmb	sy
 396:.\Generated_Source\PSoC5/cyfitter_cfg.c **** 	CY_SET_REG8((void CYXDATA *)CYREG_PHUB_CH0_ACTION, 0x01u); /* cpu_req */
 280              		.loc 1 396 0
 281 00ae 294B     		ldr	r3, .L15+64
 282 00b0 0122     		movs	r2, #1
 283 00b2 1A70     		strb	r2, [r3]
 397:.\Generated_Source\PSoC5/cyfitter_cfg.c **** 	CY_CFG_MEMORY_BARRIER();
 284              		.loc 1 397 0
 285 00b4 BFF35F8F 		dmb	sy
ARM GAS  C:\Users\nm\AppData\Local\Temp\ccfftuKh.s 			page 13


 398:.\Generated_Source\PSoC5/cyfitter_cfg.c **** 
 399:.\Generated_Source\PSoC5/cyfitter_cfg.c **** 	/* Wait for all DMA transfers to complete */
 400:.\Generated_Source\PSoC5/cyfitter_cfg.c **** 	while(0u != (CY_GET_REG8((void CYXDATA *)CYREG_PHUB_CH0_BASIC_STATUS) & 0x01u)){}
 286              		.loc 1 400 0
 287 00b8 00BF     		nop
 288              	.L10:
 289              		.loc 1 400 0 is_stmt 0 discriminator 1
 290 00ba 294B     		ldr	r3, .L15+76
 291 00bc 1B78     		ldrb	r3, [r3]
 292 00be DBB2     		uxtb	r3, r3
 293 00c0 03F00103 		and	r3, r3, #1
 294 00c4 002B     		cmp	r3, #0
 295 00c6 F8D1     		bne	.L10
 401:.\Generated_Source\PSoC5/cyfitter_cfg.c **** 	while(0u != (CY_GET_REG8((void CYXDATA *)CYREG_PHUB_CH1_BASIC_STATUS) & 0x01u)){}
 296              		.loc 1 401 0 is_stmt 1
 297 00c8 00BF     		nop
 298              	.L11:
 299              		.loc 1 401 0 is_stmt 0 discriminator 1
 300 00ca 264B     		ldr	r3, .L15+80
 301 00cc 1B78     		ldrb	r3, [r3]
 302 00ce DBB2     		uxtb	r3, r3
 303 00d0 03F00103 		and	r3, r3, #1
 304 00d4 002B     		cmp	r3, #0
 305 00d6 F8D1     		bne	.L11
 402:.\Generated_Source\PSoC5/cyfitter_cfg.c **** 	while(0u != (CY_GET_REG8((void CYXDATA *)CYREG_PHUB_CH2_BASIC_STATUS) & 0x01u)){}
 306              		.loc 1 402 0 is_stmt 1
 307 00d8 00BF     		nop
 308              	.L12:
 309              		.loc 1 402 0 is_stmt 0 discriminator 1
 310 00da 234B     		ldr	r3, .L15+84
 311 00dc 1B78     		ldrb	r3, [r3]
 312 00de DBB2     		uxtb	r3, r3
 313 00e0 03F00103 		and	r3, r3, #1
 314 00e4 002B     		cmp	r3, #0
 315 00e6 F8D1     		bne	.L12
 403:.\Generated_Source\PSoC5/cyfitter_cfg.c **** 	while(0u != (CY_GET_REG8((void CYXDATA *)CYREG_PHUB_CH5_BASIC_STATUS) & 0x01u)){}
 316              		.loc 1 403 0 is_stmt 1
 317 00e8 00BF     		nop
 318              	.L13:
 319              		.loc 1 403 0 is_stmt 0 discriminator 1
 320 00ea 204B     		ldr	r3, .L15+88
 321 00ec 1B78     		ldrb	r3, [r3]
 322 00ee DBB2     		uxtb	r3, r3
 323 00f0 03F00103 		and	r3, r3, #1
 324 00f4 002B     		cmp	r3, #0
 325 00f6 F8D1     		bne	.L13
 404:.\Generated_Source\PSoC5/cyfitter_cfg.c **** 	while(0u != (CY_GET_REG8((void CYXDATA *)CYREG_PHUB_CH6_BASIC_STATUS) & 0x01u)){}
 326              		.loc 1 404 0 is_stmt 1
 327 00f8 00BF     		nop
 328              	.L14:
 329              		.loc 1 404 0 is_stmt 0 discriminator 1
 330 00fa 1D4B     		ldr	r3, .L15+92
 331 00fc 1B78     		ldrb	r3, [r3]
 332 00fe DBB2     		uxtb	r3, r3
 333 0100 03F00103 		and	r3, r3, #1
 334 0104 002B     		cmp	r3, #0
 335 0106 F8D1     		bne	.L14
ARM GAS  C:\Users\nm\AppData\Local\Temp\ccfftuKh.s 			page 14


 405:.\Generated_Source\PSoC5/cyfitter_cfg.c **** 
 406:.\Generated_Source\PSoC5/cyfitter_cfg.c **** 
 407:.\Generated_Source\PSoC5/cyfitter_cfg.c **** }
 336              		.loc 1 407 0 is_stmt 1
 337 0108 0C37     		adds	r7, r7, #12
 338              		.cfi_def_cfa_offset 4
 339 010a BD46     		mov	sp, r7
 340              		.cfi_def_cfa_register 13
 341              		@ sp needed
 342 010c 5DF8047B 		ldr	r7, [sp], #4
 343              		.cfi_restore 7
 344              		.cfi_def_cfa_offset 0
 345 0110 7047     		bx	lr
 346              	.L16:
 347 0112 00BF     		.align	2
 348              	.L15:
 349 0114 00000000 		.word	DMA_ZERO_VAL.4860
 350 0118 00760040 		.word	1073772032
 351 011c 10700040 		.word	1073770512
 352 0120 19700040 		.word	1073770521
 353 0124 00780040 		.word	1073772544
 354 0128 02780040 		.word	1073772546
 355 012c 03780040 		.word	1073772547
 356 0130 04780040 		.word	1073772548
 357 0134 00000000 		.word	CFG_TD_LIST0.4861
 358 0138 06780040 		.word	1073772550
 359 013c 04760040 		.word	1073772036
 360 0140 06760040 		.word	1073772038
 361 0144 29700040 		.word	1073770537
 362 0148 39700040 		.word	1073770553
 363 014c 69700040 		.word	1073770601
 364 0150 79700040 		.word	1073770617
 365 0154 14700040 		.word	1073770516
 366 0158 0C780040 		.word	1073772556
 367 015c 40000000 		.word	CFG_TD_ADDR0.4862
 368 0160 18700040 		.word	1073770520
 369 0164 28700040 		.word	1073770536
 370 0168 38700040 		.word	1073770552
 371 016c 68700040 		.word	1073770600
 372 0170 78700040 		.word	1073770616
 373              		.cfi_endproc
 374              	.LFE4:
 375              		.size	cfg_dma_init, .-cfg_dma_init
 376              		.section	.text.ClockSetup,"ax",%progbits
 377              		.align	2
 378              		.thumb
 379              		.thumb_func
 380              		.type	ClockSetup, %function
 381              	ClockSetup:
 382              	.LFB5:
 408:.\Generated_Source\PSoC5/cyfitter_cfg.c **** /*******************************************************************************
 409:.\Generated_Source\PSoC5/cyfitter_cfg.c **** * Function Name: ClockSetup
 410:.\Generated_Source\PSoC5/cyfitter_cfg.c **** ********************************************************************************
 411:.\Generated_Source\PSoC5/cyfitter_cfg.c **** *
 412:.\Generated_Source\PSoC5/cyfitter_cfg.c **** * Summary:
 413:.\Generated_Source\PSoC5/cyfitter_cfg.c **** *  Performs the initialization of all of the clocks in the device based on the
 414:.\Generated_Source\PSoC5/cyfitter_cfg.c **** *  settings in the Clock tab of the DWR.  This includes enabling the requested
ARM GAS  C:\Users\nm\AppData\Local\Temp\ccfftuKh.s 			page 15


 415:.\Generated_Source\PSoC5/cyfitter_cfg.c **** *  clocks and setting the necessary dividers to produce the desired frequency. 
 416:.\Generated_Source\PSoC5/cyfitter_cfg.c **** *
 417:.\Generated_Source\PSoC5/cyfitter_cfg.c **** * Parameters:
 418:.\Generated_Source\PSoC5/cyfitter_cfg.c **** *  void
 419:.\Generated_Source\PSoC5/cyfitter_cfg.c **** *
 420:.\Generated_Source\PSoC5/cyfitter_cfg.c **** * Return:
 421:.\Generated_Source\PSoC5/cyfitter_cfg.c **** *  void
 422:.\Generated_Source\PSoC5/cyfitter_cfg.c **** *
 423:.\Generated_Source\PSoC5/cyfitter_cfg.c **** *******************************************************************************/
 424:.\Generated_Source\PSoC5/cyfitter_cfg.c **** static void ClockSetup(void);
 425:.\Generated_Source\PSoC5/cyfitter_cfg.c **** static void ClockSetup(void)
 426:.\Generated_Source\PSoC5/cyfitter_cfg.c **** {
 383              		.loc 1 426 0
 384              		.cfi_startproc
 385              		@ args = 0, pretend = 0, frame = 8
 386              		@ frame_needed = 1, uses_anonymous_args = 0
 387 0000 80B5     		push	{r7, lr}
 388              		.cfi_def_cfa_offset 8
 389              		.cfi_offset 7, -8
 390              		.cfi_offset 14, -4
 391 0002 82B0     		sub	sp, sp, #8
 392              		.cfi_def_cfa_offset 16
 393 0004 00AF     		add	r7, sp, #0
 394              		.cfi_def_cfa_register 7
 427:.\Generated_Source\PSoC5/cyfitter_cfg.c **** 	uint32 timeout;
 428:.\Generated_Source\PSoC5/cyfitter_cfg.c **** 	uint8 pllLock;
 429:.\Generated_Source\PSoC5/cyfitter_cfg.c **** 
 430:.\Generated_Source\PSoC5/cyfitter_cfg.c **** 
 431:.\Generated_Source\PSoC5/cyfitter_cfg.c **** 	/* Configure Digital Clocks based on settings from Clock DWR */
 432:.\Generated_Source\PSoC5/cyfitter_cfg.c **** 	CY_SET_XTND_REG16((void CYFAR *)(CYREG_CLKDIST_DCFG0_CFG0), 0x0000u);
 395              		.loc 1 432 0
 396 0006 3E4B     		ldr	r3, .L22
 397 0008 0022     		movs	r2, #0
 398 000a 1A80     		strh	r2, [r3]	@ movhi
 433:.\Generated_Source\PSoC5/cyfitter_cfg.c **** 	CY_SET_XTND_REG8((void CYFAR *)(CYREG_CLKDIST_DCFG0_CFG0 + 0x2u), 0x50u);
 399              		.loc 1 433 0
 400 000c 3D4B     		ldr	r3, .L22+4
 401 000e 5022     		movs	r2, #80
 402 0010 1A70     		strb	r2, [r3]
 434:.\Generated_Source\PSoC5/cyfitter_cfg.c **** 	CY_SET_XTND_REG16((void CYFAR *)(CYREG_CLKDIST_DCFG1_CFG0), 0x0019u);
 403              		.loc 1 434 0
 404 0012 3D4B     		ldr	r3, .L22+8
 405 0014 1922     		movs	r2, #25
 406 0016 1A80     		strh	r2, [r3]	@ movhi
 435:.\Generated_Source\PSoC5/cyfitter_cfg.c **** 	CY_SET_XTND_REG8((void CYFAR *)(CYREG_CLKDIST_DCFG1_CFG0 + 0x2u), 0x18u);
 407              		.loc 1 435 0
 408 0018 3C4B     		ldr	r3, .L22+12
 409 001a 1822     		movs	r2, #24
 410 001c 1A70     		strb	r2, [r3]
 436:.\Generated_Source\PSoC5/cyfitter_cfg.c **** 
 437:.\Generated_Source\PSoC5/cyfitter_cfg.c **** 	/* Configure Analog Clocks based on settings from Clock DWR */
 438:.\Generated_Source\PSoC5/cyfitter_cfg.c **** 	CYCONFIGCPY((void CYFAR *)(CYREG_CLKDIST_ACFG0_CFG0), (const void CYFAR *)(BS_CYDEV_CLKDIST_ACFG0_
 411              		.loc 1 438 0
 412 001e 3C48     		ldr	r0, .L22+16
 413 0020 3C49     		ldr	r1, .L22+20
 414 0022 0422     		movs	r2, #4
 415 0024 FFF7FEFF 		bl	CYCONFIGCPY
ARM GAS  C:\Users\nm\AppData\Local\Temp\ccfftuKh.s 			page 16


 439:.\Generated_Source\PSoC5/cyfitter_cfg.c **** 
 440:.\Generated_Source\PSoC5/cyfitter_cfg.c **** 	/* Configure ILO based on settings from Clock DWR */
 441:.\Generated_Source\PSoC5/cyfitter_cfg.c **** 	CY_SET_XTND_REG8((void CYFAR *)(CYREG_SLOWCLK_ILO_CR0), 0x02u);
 416              		.loc 1 441 0
 417 0028 3B4B     		ldr	r3, .L22+24
 418 002a 0222     		movs	r2, #2
 419 002c 1A70     		strb	r2, [r3]
 442:.\Generated_Source\PSoC5/cyfitter_cfg.c **** 	CY_SET_XTND_REG8((void CYFAR *)(CYREG_CLKDIST_CR), 0x08u);
 420              		.loc 1 442 0
 421 002e 4FF04023 		mov	r3, #1073758208
 422 0032 0822     		movs	r2, #8
 423 0034 1A70     		strb	r2, [r3]
 443:.\Generated_Source\PSoC5/cyfitter_cfg.c **** 
 444:.\Generated_Source\PSoC5/cyfitter_cfg.c **** 	/* Configure IMO based on settings from Clock DWR */
 445:.\Generated_Source\PSoC5/cyfitter_cfg.c **** 	CY_SET_XTND_REG8((void CYFAR *)(CYREG_FASTCLK_IMO_CR), 0x03u);
 424              		.loc 1 445 0
 425 0036 394B     		ldr	r3, .L22+28
 426 0038 0322     		movs	r2, #3
 427 003a 1A70     		strb	r2, [r3]
 446:.\Generated_Source\PSoC5/cyfitter_cfg.c **** 	CY_SET_XTND_REG8((void CYFAR *)(CYREG_IMO_TR1), (CY_GET_XTND_REG8((void CYFAR *)CYREG_FLSHID_CUST_
 428              		.loc 1 446 0
 429 003c 384B     		ldr	r3, .L22+32
 430 003e 394A     		ldr	r2, .L22+36
 431 0040 1278     		ldrb	r2, [r2]
 432 0042 D2B2     		uxtb	r2, r2
 433 0044 1A70     		strb	r2, [r3]
 447:.\Generated_Source\PSoC5/cyfitter_cfg.c **** 
 448:.\Generated_Source\PSoC5/cyfitter_cfg.c **** 	/* Configure PLL based on settings from Clock DWR */
 449:.\Generated_Source\PSoC5/cyfitter_cfg.c **** 	CY_SET_XTND_REG16((void CYFAR *)(CYREG_FASTCLK_PLL_P), 0x0008u);
 434              		.loc 1 449 0
 435 0046 384B     		ldr	r3, .L22+40
 436 0048 0822     		movs	r2, #8
 437 004a 1A80     		strh	r2, [r3]	@ movhi
 450:.\Generated_Source\PSoC5/cyfitter_cfg.c **** 	CY_SET_XTND_REG16((void CYFAR *)(CYREG_FASTCLK_PLL_CFG0), 0x1251u);
 438              		.loc 1 450 0
 439 004c 374B     		ldr	r3, .L22+44
 440 004e 41F25122 		movw	r2, #4689
 441 0052 1A80     		strh	r2, [r3]	@ movhi
 451:.\Generated_Source\PSoC5/cyfitter_cfg.c **** 	/* Wait up to 250us for the PLL to lock */
 452:.\Generated_Source\PSoC5/cyfitter_cfg.c **** 	pllLock = 0u;
 442              		.loc 1 452 0
 443 0054 0023     		movs	r3, #0
 444 0056 FB70     		strb	r3, [r7, #3]
 453:.\Generated_Source\PSoC5/cyfitter_cfg.c **** 	for (timeout = 250u / 10u; (timeout > 0u) && (pllLock != 0x03u); timeout--)
 445              		.loc 1 453 0
 446 0058 1923     		movs	r3, #25
 447 005a 7B60     		str	r3, [r7, #4]
 448 005c 13E0     		b	.L18
 449              	.L20:
 454:.\Generated_Source\PSoC5/cyfitter_cfg.c **** 	{ 
 455:.\Generated_Source\PSoC5/cyfitter_cfg.c **** 		pllLock = 0x03u & ((uint8)((uint8)pllLock << 1) | ((CY_GET_XTND_REG8((void CYFAR *)CYREG_FASTCLK_
 450              		.loc 1 455 0 discriminator 4
 451 005e FB78     		ldrb	r3, [r7, #3]
 452 0060 5B00     		lsls	r3, r3, #1
 453 0062 DAB2     		uxtb	r2, r3
 454 0064 324B     		ldr	r3, .L22+48
 455 0066 1B78     		ldrb	r3, [r3]
ARM GAS  C:\Users\nm\AppData\Local\Temp\ccfftuKh.s 			page 17


 456 0068 DBB2     		uxtb	r3, r3
 457 006a 03F00103 		and	r3, r3, #1
 458 006e DBB2     		uxtb	r3, r3
 459 0070 1343     		orrs	r3, r3, r2
 460 0072 DBB2     		uxtb	r3, r3
 461 0074 03F00303 		and	r3, r3, #3
 462 0078 FB70     		strb	r3, [r7, #3]
 456:.\Generated_Source\PSoC5/cyfitter_cfg.c **** 		CyDelayCycles(10u * 12u); /* Delay 10us based on 12MHz clock */
 463              		.loc 1 456 0 discriminator 4
 464 007a 7820     		movs	r0, #120
 465 007c FFF7FEFF 		bl	CyDelayCycles
 453:.\Generated_Source\PSoC5/cyfitter_cfg.c **** 	for (timeout = 250u / 10u; (timeout > 0u) && (pllLock != 0x03u); timeout--)
 466              		.loc 1 453 0 discriminator 4
 467 0080 7B68     		ldr	r3, [r7, #4]
 468 0082 013B     		subs	r3, r3, #1
 469 0084 7B60     		str	r3, [r7, #4]
 470              	.L18:
 453:.\Generated_Source\PSoC5/cyfitter_cfg.c **** 	for (timeout = 250u / 10u; (timeout > 0u) && (pllLock != 0x03u); timeout--)
 471              		.loc 1 453 0 is_stmt 0 discriminator 1
 472 0086 7B68     		ldr	r3, [r7, #4]
 473 0088 002B     		cmp	r3, #0
 474 008a 02D0     		beq	.L19
 453:.\Generated_Source\PSoC5/cyfitter_cfg.c **** 	for (timeout = 250u / 10u; (timeout > 0u) && (pllLock != 0x03u); timeout--)
 475              		.loc 1 453 0 discriminator 3
 476 008c FB78     		ldrb	r3, [r7, #3]	@ zero_extendqisi2
 477 008e 032B     		cmp	r3, #3
 478 0090 E5D1     		bne	.L20
 479              	.L19:
 457:.\Generated_Source\PSoC5/cyfitter_cfg.c **** 	}
 458:.\Generated_Source\PSoC5/cyfitter_cfg.c **** 	/* If we ran out of time the PLL didn't lock so go to the error function */
 459:.\Generated_Source\PSoC5/cyfitter_cfg.c **** 	if (timeout == 0u)
 480              		.loc 1 459 0 is_stmt 1
 481 0092 7B68     		ldr	r3, [r7, #4]
 482 0094 002B     		cmp	r3, #0
 483 0096 02D1     		bne	.L21
 460:.\Generated_Source\PSoC5/cyfitter_cfg.c **** 	{
 461:.\Generated_Source\PSoC5/cyfitter_cfg.c **** 		CyClockStartupError(CYCLOCKSTART_PLL_ERROR);
 484              		.loc 1 461 0
 485 0098 0320     		movs	r0, #3
 486 009a FFF7FEFF 		bl	CyClockStartupError
 487              	.L21:
 462:.\Generated_Source\PSoC5/cyfitter_cfg.c **** 	}
 463:.\Generated_Source\PSoC5/cyfitter_cfg.c **** 
 464:.\Generated_Source\PSoC5/cyfitter_cfg.c **** 	/* Configure Bus/Master Clock based on settings from Clock DWR */
 465:.\Generated_Source\PSoC5/cyfitter_cfg.c **** 	CY_SET_XTND_REG16((void CYFAR *)(CYREG_CLKDIST_MSTR0), 0x0100u);
 488              		.loc 1 465 0
 489 009e 254B     		ldr	r3, .L22+52
 490 00a0 4FF48072 		mov	r2, #256
 491 00a4 1A80     		strh	r2, [r3]	@ movhi
 466:.\Generated_Source\PSoC5/cyfitter_cfg.c **** 	CY_SET_XTND_REG8((void CYFAR *)(CYREG_CLKDIST_MSTR0), 0x07u);
 492              		.loc 1 466 0
 493 00a6 234B     		ldr	r3, .L22+52
 494 00a8 0722     		movs	r2, #7
 495 00aa 1A70     		strb	r2, [r3]
 467:.\Generated_Source\PSoC5/cyfitter_cfg.c **** 	CY_SET_XTND_REG8((void CYFAR *)(CYREG_CLKDIST_BCFG0), 0x00u);
 496              		.loc 1 467 0
 497 00ac 224B     		ldr	r3, .L22+56
ARM GAS  C:\Users\nm\AppData\Local\Temp\ccfftuKh.s 			page 18


 498 00ae 0022     		movs	r2, #0
 499 00b0 1A70     		strb	r2, [r3]
 468:.\Generated_Source\PSoC5/cyfitter_cfg.c **** 	CY_SET_XTND_REG8((void CYFAR *)(CYREG_CLKDIST_BCFG2), 0x48u);
 500              		.loc 1 468 0
 501 00b2 224B     		ldr	r3, .L22+60
 502 00b4 4822     		movs	r2, #72
 503 00b6 1A70     		strb	r2, [r3]
 469:.\Generated_Source\PSoC5/cyfitter_cfg.c **** 	CY_SET_XTND_REG8((void CYFAR *)(CYREG_CLKDIST_MSTR0), 0x00u);
 504              		.loc 1 469 0
 505 00b8 1E4B     		ldr	r3, .L22+52
 506 00ba 0022     		movs	r2, #0
 507 00bc 1A70     		strb	r2, [r3]
 470:.\Generated_Source\PSoC5/cyfitter_cfg.c **** 	CY_SET_XTND_REG8((void CYFAR *)(CYREG_CLKDIST_LD), 0x02u);
 508              		.loc 1 470 0
 509 00be 204B     		ldr	r3, .L22+64
 510 00c0 0222     		movs	r2, #2
 511 00c2 1A70     		strb	r2, [r3]
 471:.\Generated_Source\PSoC5/cyfitter_cfg.c **** 	CY_SET_XTND_REG8((void CYFAR *)(CYREG_CLKDIST_DLY1), 0x04u);
 512              		.loc 1 471 0
 513 00c4 1F4B     		ldr	r3, .L22+68
 514 00c6 0422     		movs	r2, #4
 515 00c8 1A70     		strb	r2, [r3]
 472:.\Generated_Source\PSoC5/cyfitter_cfg.c **** 
 473:.\Generated_Source\PSoC5/cyfitter_cfg.c **** 	CY_SET_XTND_REG8((void CYFAR *)(CYREG_PM_ACT_CFG2), ((CY_GET_XTND_REG8((void CYFAR *)CYREG_PM_ACT_
 516              		.loc 1 473 0
 517 00ca 1F4A     		ldr	r2, .L22+72
 518 00cc 1E4B     		ldr	r3, .L22+72
 519 00ce 1B78     		ldrb	r3, [r3]
 520 00d0 DBB2     		uxtb	r3, r3
 521 00d2 43F00303 		orr	r3, r3, #3
 522 00d6 DBB2     		uxtb	r3, r3
 523 00d8 1370     		strb	r3, [r2]
 474:.\Generated_Source\PSoC5/cyfitter_cfg.c **** 	CY_SET_XTND_REG8((void CYFAR *)(CYREG_PM_ACT_CFG1), ((CY_GET_XTND_REG8((void CYFAR *)CYREG_PM_ACT_
 524              		.loc 1 474 0
 525 00da 1C4A     		ldr	r2, .L22+76
 526 00dc 1B4B     		ldr	r3, .L22+76
 527 00de 1B78     		ldrb	r3, [r3]
 528 00e0 DBB2     		uxtb	r3, r3
 529 00e2 43F00103 		orr	r3, r3, #1
 530 00e6 DBB2     		uxtb	r3, r3
 531 00e8 1370     		strb	r3, [r2]
 475:.\Generated_Source\PSoC5/cyfitter_cfg.c **** 	CY_SET_XTND_REG8((void CYFAR *)(CYREG_PM_ACT_CFG0), ((CY_GET_XTND_REG8((void CYFAR *)CYREG_PM_ACT_
 532              		.loc 1 475 0
 533 00ea 194A     		ldr	r2, .L22+80
 534 00ec 184B     		ldr	r3, .L22+80
 535 00ee 1B78     		ldrb	r3, [r3]
 536 00f0 DBB2     		uxtb	r3, r3
 537 00f2 63F07F03 		orn	r3, r3, #127
 538 00f6 DBB2     		uxtb	r3, r3
 539 00f8 1370     		strb	r3, [r2]
 476:.\Generated_Source\PSoC5/cyfitter_cfg.c **** }
 540              		.loc 1 476 0
 541 00fa 0837     		adds	r7, r7, #8
 542              		.cfi_def_cfa_offset 8
 543 00fc BD46     		mov	sp, r7
 544              		.cfi_def_cfa_register 13
 545              		@ sp needed
ARM GAS  C:\Users\nm\AppData\Local\Temp\ccfftuKh.s 			page 19


 546 00fe 80BD     		pop	{r7, pc}
 547              	.L23:
 548              		.align	2
 549              	.L22:
 550 0100 80400040 		.word	1073758336
 551 0104 82400040 		.word	1073758338
 552 0108 84400040 		.word	1073758340
 553 010c 86400040 		.word	1073758342
 554 0110 00410040 		.word	1073758464
 555 0114 CC080048 		.word	1207961804
 556 0118 00430040 		.word	1073758976
 557 011c 00420040 		.word	1073758720
 558 0120 A1460040 		.word	1073759905
 559 0124 08010049 		.word	1224737032
 560 0128 22420040 		.word	1073758754
 561 012c 20420040 		.word	1073758752
 562 0130 25420040 		.word	1073758757
 563 0134 04400040 		.word	1073758212
 564 0138 06400040 		.word	1073758214
 565 013c 08400040 		.word	1073758216
 566 0140 01400040 		.word	1073758209
 567 0144 0B400040 		.word	1073758219
 568 0148 A2430040 		.word	1073759138
 569 014c A1430040 		.word	1073759137
 570 0150 A0430040 		.word	1073759136
 571              		.cfi_endproc
 572              	.LFE5:
 573              		.size	ClockSetup, .-ClockSetup
 574              		.section	.text.AnalogSetDefault,"ax",%progbits
 575              		.align	2
 576              		.thumb
 577              		.thumb_func
 578              		.type	AnalogSetDefault, %function
 579              	AnalogSetDefault:
 580              	.LFB6:
 477:.\Generated_Source\PSoC5/cyfitter_cfg.c **** 
 478:.\Generated_Source\PSoC5/cyfitter_cfg.c **** 
 479:.\Generated_Source\PSoC5/cyfitter_cfg.c **** /* Analog API Functions */
 480:.\Generated_Source\PSoC5/cyfitter_cfg.c **** 
 481:.\Generated_Source\PSoC5/cyfitter_cfg.c **** 
 482:.\Generated_Source\PSoC5/cyfitter_cfg.c **** /*******************************************************************************
 483:.\Generated_Source\PSoC5/cyfitter_cfg.c **** * Function Name: AnalogSetDefault
 484:.\Generated_Source\PSoC5/cyfitter_cfg.c **** ********************************************************************************
 485:.\Generated_Source\PSoC5/cyfitter_cfg.c **** *
 486:.\Generated_Source\PSoC5/cyfitter_cfg.c **** * Summary:
 487:.\Generated_Source\PSoC5/cyfitter_cfg.c **** *  Sets up the analog portions of the chip to default values based on chip
 488:.\Generated_Source\PSoC5/cyfitter_cfg.c **** *  configuration options from the project.
 489:.\Generated_Source\PSoC5/cyfitter_cfg.c **** *
 490:.\Generated_Source\PSoC5/cyfitter_cfg.c **** * Parameters:
 491:.\Generated_Source\PSoC5/cyfitter_cfg.c **** *  void
 492:.\Generated_Source\PSoC5/cyfitter_cfg.c **** *
 493:.\Generated_Source\PSoC5/cyfitter_cfg.c **** * Return:
 494:.\Generated_Source\PSoC5/cyfitter_cfg.c **** *  void
 495:.\Generated_Source\PSoC5/cyfitter_cfg.c **** *
 496:.\Generated_Source\PSoC5/cyfitter_cfg.c **** *******************************************************************************/
 497:.\Generated_Source\PSoC5/cyfitter_cfg.c **** static void AnalogSetDefault(void);
 498:.\Generated_Source\PSoC5/cyfitter_cfg.c **** static void AnalogSetDefault(void)
ARM GAS  C:\Users\nm\AppData\Local\Temp\ccfftuKh.s 			page 20


 499:.\Generated_Source\PSoC5/cyfitter_cfg.c **** {
 581              		.loc 1 499 0
 582              		.cfi_startproc
 583              		@ args = 0, pretend = 0, frame = 8
 584              		@ frame_needed = 1, uses_anonymous_args = 0
 585              		@ link register save eliminated.
 586 0000 80B4     		push	{r7}
 587              		.cfi_def_cfa_offset 4
 588              		.cfi_offset 7, -4
 589 0002 83B0     		sub	sp, sp, #12
 590              		.cfi_def_cfa_offset 16
 591 0004 00AF     		add	r7, sp, #0
 592              		.cfi_def_cfa_register 7
 500:.\Generated_Source\PSoC5/cyfitter_cfg.c **** 	uint8 bg_xover_inl_trim = CY_GET_XTND_REG8((void CYFAR *)(CYREG_FLSHID_MFG_CFG_BG_XOVER_INL_TRIM +
 593              		.loc 1 500 0
 594 0006 134B     		ldr	r3, .L25
 595 0008 1B78     		ldrb	r3, [r3]
 596 000a FB71     		strb	r3, [r7, #7]
 501:.\Generated_Source\PSoC5/cyfitter_cfg.c **** 	CY_SET_XTND_REG8((void CYFAR *)(CYREG_BG_DFT0), (bg_xover_inl_trim & 0x07u));
 597              		.loc 1 501 0
 598 000c 124A     		ldr	r2, .L25+4
 599 000e FB79     		ldrb	r3, [r7, #7]
 600 0010 03F00703 		and	r3, r3, #7
 601 0014 DBB2     		uxtb	r3, r3
 602 0016 1370     		strb	r3, [r2]
 502:.\Generated_Source\PSoC5/cyfitter_cfg.c **** 	CY_SET_XTND_REG8((void CYFAR *)(CYREG_BG_DFT1), ((bg_xover_inl_trim >> 4) & 0x0Fu));
 603              		.loc 1 502 0
 604 0018 104A     		ldr	r2, .L25+8
 605 001a FB79     		ldrb	r3, [r7, #7]	@ zero_extendqisi2
 606 001c 1B09     		lsrs	r3, r3, #4
 607 001e DBB2     		uxtb	r3, r3
 608 0020 1370     		strb	r3, [r2]
 503:.\Generated_Source\PSoC5/cyfitter_cfg.c **** 	CY_SET_XTND_REG8((void CYFAR *)CYREG_PRT0_AG, 0x02u);
 609              		.loc 1 503 0
 610 0022 0F4B     		ldr	r3, .L25+12
 611 0024 0222     		movs	r2, #2
 612 0026 1A70     		strb	r2, [r3]
 504:.\Generated_Source\PSoC5/cyfitter_cfg.c **** 	CY_SET_XTND_REG8((void CYFAR *)CYREG_DAC0_SW2, 0x02u);
 613              		.loc 1 504 0
 614 0028 0E4B     		ldr	r3, .L25+16
 615 002a 0222     		movs	r2, #2
 616 002c 1A70     		strb	r2, [r3]
 505:.\Generated_Source\PSoC5/cyfitter_cfg.c **** 	CY_SET_XTND_REG8((void CYFAR *)CYREG_DSM0_SW0, 0x10u);
 617              		.loc 1 505 0
 618 002e 0E4B     		ldr	r3, .L25+20
 619 0030 1022     		movs	r2, #16
 620 0032 1A70     		strb	r2, [r3]
 506:.\Generated_Source\PSoC5/cyfitter_cfg.c **** 	CY_SET_XTND_REG8((void CYFAR *)CYREG_OPAMP0_MX, 0x04u);
 621              		.loc 1 506 0
 622 0034 0D4B     		ldr	r3, .L25+24
 623 0036 0422     		movs	r2, #4
 624 0038 1A70     		strb	r2, [r3]
 507:.\Generated_Source\PSoC5/cyfitter_cfg.c **** 	CY_SET_XTND_REG16((void CYFAR *)CYREG_OPAMP2_MX, 0x0106u);
 625              		.loc 1 507 0
 626 003a 0D4B     		ldr	r3, .L25+28
 627 003c 4FF48372 		mov	r2, #262
 628 0040 1A80     		strh	r2, [r3]	@ movhi
ARM GAS  C:\Users\nm\AppData\Local\Temp\ccfftuKh.s 			page 21


 508:.\Generated_Source\PSoC5/cyfitter_cfg.c **** 	CY_SET_XTND_REG8((void CYFAR *)CYREG_PUMP_CR0, 0x44u);
 629              		.loc 1 508 0
 630 0042 0C4B     		ldr	r3, .L25+32
 631 0044 4422     		movs	r2, #68
 632 0046 1A70     		strb	r2, [r3]
 509:.\Generated_Source\PSoC5/cyfitter_cfg.c **** }
 633              		.loc 1 509 0
 634 0048 0C37     		adds	r7, r7, #12
 635              		.cfi_def_cfa_offset 4
 636 004a BD46     		mov	sp, r7
 637              		.cfi_def_cfa_register 13
 638              		@ sp needed
 639 004c 5DF8047B 		ldr	r7, [sp], #4
 640              		.cfi_restore 7
 641              		.cfi_def_cfa_offset 0
 642 0050 7047     		bx	lr
 643              	.L26:
 644 0052 00BF     		.align	2
 645              	.L25:
 646 0054 CF010049 		.word	1224737231
 647 0058 6E580040 		.word	1073764462
 648 005c 6F580040 		.word	1073764463
 649 0060 0D510040 		.word	1073762573
 650 0064 825A0040 		.word	1073764994
 651 0068 005B0040 		.word	1073765120
 652 006c 405B0040 		.word	1073765184
 653 0070 445B0040 		.word	1073765188
 654 0074 76580040 		.word	1073764470
 655              		.cfi_endproc
 656              	.LFE6:
 657              		.size	AnalogSetDefault, .-AnalogSetDefault
 658              		.section	.text.SetAnalogRoutingPumps,"ax",%progbits
 659              		.align	2
 660              		.global	SetAnalogRoutingPumps
 661              		.thumb
 662              		.thumb_func
 663              		.type	SetAnalogRoutingPumps, %function
 664              	SetAnalogRoutingPumps:
 665              	.LFB7:
 510:.\Generated_Source\PSoC5/cyfitter_cfg.c **** 
 511:.\Generated_Source\PSoC5/cyfitter_cfg.c **** 
 512:.\Generated_Source\PSoC5/cyfitter_cfg.c **** /*******************************************************************************
 513:.\Generated_Source\PSoC5/cyfitter_cfg.c **** * Function Name: SetAnalogRoutingPumps
 514:.\Generated_Source\PSoC5/cyfitter_cfg.c **** ********************************************************************************
 515:.\Generated_Source\PSoC5/cyfitter_cfg.c **** *
 516:.\Generated_Source\PSoC5/cyfitter_cfg.c **** * Summary:
 517:.\Generated_Source\PSoC5/cyfitter_cfg.c **** * Enables or disables the analog pumps feeding analog routing switches.
 518:.\Generated_Source\PSoC5/cyfitter_cfg.c **** * Intended to be called at startup, based on the Vdda system configuration;
 519:.\Generated_Source\PSoC5/cyfitter_cfg.c **** * may be called during operation when the user informs us that the Vdda voltage
 520:.\Generated_Source\PSoC5/cyfitter_cfg.c **** * crossed the pump threshold.
 521:.\Generated_Source\PSoC5/cyfitter_cfg.c **** *
 522:.\Generated_Source\PSoC5/cyfitter_cfg.c **** * Parameters:
 523:.\Generated_Source\PSoC5/cyfitter_cfg.c **** *  enabled - 1 to enable the pumps, 0 to disable the pumps
 524:.\Generated_Source\PSoC5/cyfitter_cfg.c **** *
 525:.\Generated_Source\PSoC5/cyfitter_cfg.c **** * Return:
 526:.\Generated_Source\PSoC5/cyfitter_cfg.c **** *  void
 527:.\Generated_Source\PSoC5/cyfitter_cfg.c **** *
ARM GAS  C:\Users\nm\AppData\Local\Temp\ccfftuKh.s 			page 22


 528:.\Generated_Source\PSoC5/cyfitter_cfg.c **** *******************************************************************************/
 529:.\Generated_Source\PSoC5/cyfitter_cfg.c **** void SetAnalogRoutingPumps(uint8 enabled)
 530:.\Generated_Source\PSoC5/cyfitter_cfg.c **** {
 666              		.loc 1 530 0
 667              		.cfi_startproc
 668              		@ args = 0, pretend = 0, frame = 16
 669              		@ frame_needed = 1, uses_anonymous_args = 0
 670              		@ link register save eliminated.
 671 0000 80B4     		push	{r7}
 672              		.cfi_def_cfa_offset 4
 673              		.cfi_offset 7, -4
 674 0002 85B0     		sub	sp, sp, #20
 675              		.cfi_def_cfa_offset 24
 676 0004 00AF     		add	r7, sp, #0
 677              		.cfi_def_cfa_register 7
 678 0006 0346     		mov	r3, r0
 679 0008 FB71     		strb	r3, [r7, #7]
 531:.\Generated_Source\PSoC5/cyfitter_cfg.c **** 	uint8 regValue = CY_GET_XTND_REG8((void CYFAR *)CYREG_PUMP_CR0);
 680              		.loc 1 531 0
 681 000a 0B4B     		ldr	r3, .L30
 682 000c 1B78     		ldrb	r3, [r3]
 683 000e FB73     		strb	r3, [r7, #15]
 532:.\Generated_Source\PSoC5/cyfitter_cfg.c **** 	if (enabled != 0u)
 684              		.loc 1 532 0
 685 0010 FB79     		ldrb	r3, [r7, #7]	@ zero_extendqisi2
 686 0012 002B     		cmp	r3, #0
 687 0014 04D0     		beq	.L28
 533:.\Generated_Source\PSoC5/cyfitter_cfg.c **** 	{
 534:.\Generated_Source\PSoC5/cyfitter_cfg.c **** 		regValue |= 0x22u;
 688              		.loc 1 534 0
 689 0016 FB7B     		ldrb	r3, [r7, #15]
 690 0018 43F02203 		orr	r3, r3, #34
 691 001c FB73     		strb	r3, [r7, #15]
 692 001e 03E0     		b	.L29
 693              	.L28:
 535:.\Generated_Source\PSoC5/cyfitter_cfg.c **** 	}
 536:.\Generated_Source\PSoC5/cyfitter_cfg.c **** 	else
 537:.\Generated_Source\PSoC5/cyfitter_cfg.c **** 	{
 538:.\Generated_Source\PSoC5/cyfitter_cfg.c **** 		regValue &= (uint8)~0x22u;
 694              		.loc 1 538 0
 695 0020 FB7B     		ldrb	r3, [r7, #15]
 696 0022 23F02203 		bic	r3, r3, #34
 697 0026 FB73     		strb	r3, [r7, #15]
 698              	.L29:
 539:.\Generated_Source\PSoC5/cyfitter_cfg.c **** 	}
 540:.\Generated_Source\PSoC5/cyfitter_cfg.c **** 	CY_SET_XTND_REG8((void CYFAR *)CYREG_PUMP_CR0, regValue);
 699              		.loc 1 540 0
 700 0028 034A     		ldr	r2, .L30
 701 002a FB7B     		ldrb	r3, [r7, #15]
 702 002c 1370     		strb	r3, [r2]
 541:.\Generated_Source\PSoC5/cyfitter_cfg.c **** }
 703              		.loc 1 541 0
 704 002e 1437     		adds	r7, r7, #20
 705              		.cfi_def_cfa_offset 4
 706 0030 BD46     		mov	sp, r7
 707              		.cfi_def_cfa_register 13
 708              		@ sp needed
ARM GAS  C:\Users\nm\AppData\Local\Temp\ccfftuKh.s 			page 23


 709 0032 5DF8047B 		ldr	r7, [sp], #4
 710              		.cfi_restore 7
 711              		.cfi_def_cfa_offset 0
 712 0036 7047     		bx	lr
 713              	.L31:
 714              		.align	2
 715              	.L30:
 716 0038 76580040 		.word	1073764470
 717              		.cfi_endproc
 718              	.LFE7:
 719              		.size	SetAnalogRoutingPumps, .-SetAnalogRoutingPumps
 720              		.global	AMux_CYAMUXSIDE_A__addrTable
 721              		.section	.rodata
 722              		.align	2
 723              		.type	AMux_CYAMUXSIDE_A__addrTable, %object
 724              		.size	AMux_CYAMUXSIDE_A__addrTable, 24
 725              	AMux_CYAMUXSIDE_A__addrTable:
 726 0000 0D510040 		.word	1073762573
 727 0004 24430040 		.word	1073759012
 728 0008 945A0040 		.word	1073765012
 729 000c 24430040 		.word	1073759012
 730 0010 945A0040 		.word	1073765012
 731 0014 24430040 		.word	1073759012
 732              		.global	AMux_CYAMUXSIDE_A__maskTable
 733              		.align	2
 734              		.type	AMux_CYAMUXSIDE_A__maskTable, %object
 735              		.size	AMux_CYAMUXSIDE_A__maskTable, 6
 736              	AMux_CYAMUXSIDE_A__maskTable:
 737 0018 01       		.byte	1
 738 0019 00       		.byte	0
 739 001a 30       		.byte	48
 740 001b 00       		.byte	0
 741 001c 30       		.byte	48
 742 001d 00       		.byte	0
 743              		.section	.text.AMux_CYAMUXSIDE_A_Set,"ax",%progbits
 744              		.align	2
 745              		.global	AMux_CYAMUXSIDE_A_Set
 746              		.thumb
 747              		.thumb_func
 748              		.type	AMux_CYAMUXSIDE_A_Set, %function
 749              	AMux_CYAMUXSIDE_A_Set:
 750              	.LFB8:
 542:.\Generated_Source\PSoC5/cyfitter_cfg.c **** 
 543:.\Generated_Source\PSoC5/cyfitter_cfg.c **** #define CY_AMUX_UNUSED CYREG_BOOST_SR
 544:.\Generated_Source\PSoC5/cyfitter_cfg.c **** /* This is an implementation detail of the AMux. Code that depends on it may be
 545:.\Generated_Source\PSoC5/cyfitter_cfg.c ****    incompatible with other versions of PSoC Creator. */
 546:.\Generated_Source\PSoC5/cyfitter_cfg.c **** uint8 CYXDATA * const CYCODE AMux_CYAMUXSIDE_A__addrTable[6] = {
 547:.\Generated_Source\PSoC5/cyfitter_cfg.c **** 	(uint8 CYXDATA *)CYREG_PRT0_AG, (uint8 CYXDATA *)CY_AMUX_UNUSED, 
 548:.\Generated_Source\PSoC5/cyfitter_cfg.c **** 	(uint8 CYXDATA *)CYREG_DAC2_SW4, (uint8 CYXDATA *)CY_AMUX_UNUSED, 
 549:.\Generated_Source\PSoC5/cyfitter_cfg.c **** 	(uint8 CYXDATA *)CYREG_DAC2_SW4, (uint8 CYXDATA *)CY_AMUX_UNUSED, 
 550:.\Generated_Source\PSoC5/cyfitter_cfg.c **** };
 551:.\Generated_Source\PSoC5/cyfitter_cfg.c **** 
 552:.\Generated_Source\PSoC5/cyfitter_cfg.c **** /* This is an implementation detail of the AMux. Code that depends on it may be
 553:.\Generated_Source\PSoC5/cyfitter_cfg.c ****    incompatible with other versions of PSoC Creator. */
 554:.\Generated_Source\PSoC5/cyfitter_cfg.c **** const uint8 CYCODE AMux_CYAMUXSIDE_A__maskTable[6] = {
 555:.\Generated_Source\PSoC5/cyfitter_cfg.c **** 	0x01u, 0x00u, 
 556:.\Generated_Source\PSoC5/cyfitter_cfg.c **** 	0x30u, 0x00u, 
ARM GAS  C:\Users\nm\AppData\Local\Temp\ccfftuKh.s 			page 24


 557:.\Generated_Source\PSoC5/cyfitter_cfg.c **** 	0x30u, 0x00u, 
 558:.\Generated_Source\PSoC5/cyfitter_cfg.c **** };
 559:.\Generated_Source\PSoC5/cyfitter_cfg.c **** 
 560:.\Generated_Source\PSoC5/cyfitter_cfg.c **** /*******************************************************************************
 561:.\Generated_Source\PSoC5/cyfitter_cfg.c **** * Function Name: AMux_CYAMUXSIDE_A_Set
 562:.\Generated_Source\PSoC5/cyfitter_cfg.c **** ********************************************************************************
 563:.\Generated_Source\PSoC5/cyfitter_cfg.c **** * Summary:
 564:.\Generated_Source\PSoC5/cyfitter_cfg.c **** *  This function is used to set a particular channel as active on the AMux.
 565:.\Generated_Source\PSoC5/cyfitter_cfg.c **** *
 566:.\Generated_Source\PSoC5/cyfitter_cfg.c **** * Parameters:  
 567:.\Generated_Source\PSoC5/cyfitter_cfg.c **** *   channel - The mux channel input to set as active
 568:.\Generated_Source\PSoC5/cyfitter_cfg.c **** *
 569:.\Generated_Source\PSoC5/cyfitter_cfg.c **** * Return:
 570:.\Generated_Source\PSoC5/cyfitter_cfg.c **** *   void
 571:.\Generated_Source\PSoC5/cyfitter_cfg.c **** *
 572:.\Generated_Source\PSoC5/cyfitter_cfg.c **** *******************************************************************************/
 573:.\Generated_Source\PSoC5/cyfitter_cfg.c **** void AMux_CYAMUXSIDE_A_Set(uint8 channel)
 574:.\Generated_Source\PSoC5/cyfitter_cfg.c **** {
 751              		.loc 1 574 0
 752              		.cfi_startproc
 753              		@ args = 0, pretend = 0, frame = 8
 754              		@ frame_needed = 1, uses_anonymous_args = 0
 755              		@ link register save eliminated.
 756 0000 80B4     		push	{r7}
 757              		.cfi_def_cfa_offset 4
 758              		.cfi_offset 7, -4
 759 0002 83B0     		sub	sp, sp, #12
 760              		.cfi_def_cfa_offset 16
 761 0004 00AF     		add	r7, sp, #0
 762              		.cfi_def_cfa_register 7
 763 0006 0346     		mov	r3, r0
 764 0008 FB71     		strb	r3, [r7, #7]
 575:.\Generated_Source\PSoC5/cyfitter_cfg.c **** 	if (channel < 3)
 765              		.loc 1 575 0
 766 000a FB79     		ldrb	r3, [r7, #7]	@ zero_extendqisi2
 767 000c 022B     		cmp	r3, #2
 768 000e 24D8     		bhi	.L32
 576:.\Generated_Source\PSoC5/cyfitter_cfg.c **** 	{
 577:.\Generated_Source\PSoC5/cyfitter_cfg.c **** 		channel += channel;
 769              		.loc 1 577 0
 770 0010 FA79     		ldrb	r2, [r7, #7]
 771 0012 FB79     		ldrb	r3, [r7, #7]
 772 0014 1344     		add	r3, r3, r2
 773 0016 FB71     		strb	r3, [r7, #7]
 578:.\Generated_Source\PSoC5/cyfitter_cfg.c **** 		*AMux_CYAMUXSIDE_A__addrTable[channel] |= AMux_CYAMUXSIDE_A__maskTable[channel];
 774              		.loc 1 578 0
 775 0018 FB79     		ldrb	r3, [r7, #7]	@ zero_extendqisi2
 776 001a 124A     		ldr	r2, .L34
 777 001c 52F82330 		ldr	r3, [r2, r3, lsl #2]
 778 0020 FA79     		ldrb	r2, [r7, #7]	@ zero_extendqisi2
 779 0022 1049     		ldr	r1, .L34
 780 0024 51F82220 		ldr	r2, [r1, r2, lsl #2]
 781 0028 1178     		ldrb	r1, [r2]	@ zero_extendqisi2
 782 002a FA79     		ldrb	r2, [r7, #7]	@ zero_extendqisi2
 783 002c 0E48     		ldr	r0, .L34+4
 784 002e 825C     		ldrb	r2, [r0, r2]	@ zero_extendqisi2
 785 0030 0A43     		orrs	r2, r2, r1
ARM GAS  C:\Users\nm\AppData\Local\Temp\ccfftuKh.s 			page 25


 786 0032 D2B2     		uxtb	r2, r2
 787 0034 1A70     		strb	r2, [r3]
 579:.\Generated_Source\PSoC5/cyfitter_cfg.c **** 		channel++;
 788              		.loc 1 579 0
 789 0036 FB79     		ldrb	r3, [r7, #7]	@ zero_extendqisi2
 790 0038 0133     		adds	r3, r3, #1
 791 003a FB71     		strb	r3, [r7, #7]
 580:.\Generated_Source\PSoC5/cyfitter_cfg.c **** 		*AMux_CYAMUXSIDE_A__addrTable[channel] |= AMux_CYAMUXSIDE_A__maskTable[channel];
 792              		.loc 1 580 0
 793 003c FB79     		ldrb	r3, [r7, #7]	@ zero_extendqisi2
 794 003e 094A     		ldr	r2, .L34
 795 0040 52F82330 		ldr	r3, [r2, r3, lsl #2]
 796 0044 FA79     		ldrb	r2, [r7, #7]	@ zero_extendqisi2
 797 0046 0749     		ldr	r1, .L34
 798 0048 51F82220 		ldr	r2, [r1, r2, lsl #2]
 799 004c 1178     		ldrb	r1, [r2]	@ zero_extendqisi2
 800 004e FA79     		ldrb	r2, [r7, #7]	@ zero_extendqisi2
 801 0050 0548     		ldr	r0, .L34+4
 802 0052 825C     		ldrb	r2, [r0, r2]	@ zero_extendqisi2
 803 0054 0A43     		orrs	r2, r2, r1
 804 0056 D2B2     		uxtb	r2, r2
 805 0058 1A70     		strb	r2, [r3]
 806              	.L32:
 581:.\Generated_Source\PSoC5/cyfitter_cfg.c **** 	}
 582:.\Generated_Source\PSoC5/cyfitter_cfg.c **** }
 807              		.loc 1 582 0
 808 005a 0C37     		adds	r7, r7, #12
 809              		.cfi_def_cfa_offset 4
 810 005c BD46     		mov	sp, r7
 811              		.cfi_def_cfa_register 13
 812              		@ sp needed
 813 005e 5DF8047B 		ldr	r7, [sp], #4
 814              		.cfi_restore 7
 815              		.cfi_def_cfa_offset 0
 816 0062 7047     		bx	lr
 817              	.L35:
 818              		.align	2
 819              	.L34:
 820 0064 00000000 		.word	AMux_CYAMUXSIDE_A__addrTable
 821 0068 00000000 		.word	AMux_CYAMUXSIDE_A__maskTable
 822              		.cfi_endproc
 823              	.LFE8:
 824              		.size	AMux_CYAMUXSIDE_A_Set, .-AMux_CYAMUXSIDE_A_Set
 825              		.section	.text.AMux_CYAMUXSIDE_A_Unset,"ax",%progbits
 826              		.align	2
 827              		.global	AMux_CYAMUXSIDE_A_Unset
 828              		.thumb
 829              		.thumb_func
 830              		.type	AMux_CYAMUXSIDE_A_Unset, %function
 831              	AMux_CYAMUXSIDE_A_Unset:
 832              	.LFB9:
 583:.\Generated_Source\PSoC5/cyfitter_cfg.c **** 
 584:.\Generated_Source\PSoC5/cyfitter_cfg.c **** /*******************************************************************************
 585:.\Generated_Source\PSoC5/cyfitter_cfg.c **** * Function Name: AMux_CYAMUXSIDE_A_Unset
 586:.\Generated_Source\PSoC5/cyfitter_cfg.c **** ********************************************************************************
 587:.\Generated_Source\PSoC5/cyfitter_cfg.c **** * Summary:
 588:.\Generated_Source\PSoC5/cyfitter_cfg.c **** *  This function is used to clear a particular channel from being active on the
ARM GAS  C:\Users\nm\AppData\Local\Temp\ccfftuKh.s 			page 26


 589:.\Generated_Source\PSoC5/cyfitter_cfg.c **** *  AMux.
 590:.\Generated_Source\PSoC5/cyfitter_cfg.c **** *
 591:.\Generated_Source\PSoC5/cyfitter_cfg.c **** * Parameters:  
 592:.\Generated_Source\PSoC5/cyfitter_cfg.c **** *   channel - The mux channel input to mark inactive
 593:.\Generated_Source\PSoC5/cyfitter_cfg.c **** *
 594:.\Generated_Source\PSoC5/cyfitter_cfg.c **** * Return:
 595:.\Generated_Source\PSoC5/cyfitter_cfg.c **** *   void
 596:.\Generated_Source\PSoC5/cyfitter_cfg.c **** *
 597:.\Generated_Source\PSoC5/cyfitter_cfg.c **** *******************************************************************************/
 598:.\Generated_Source\PSoC5/cyfitter_cfg.c **** void AMux_CYAMUXSIDE_A_Unset(uint8 channel)
 599:.\Generated_Source\PSoC5/cyfitter_cfg.c **** {
 833              		.loc 1 599 0
 834              		.cfi_startproc
 835              		@ args = 0, pretend = 0, frame = 8
 836              		@ frame_needed = 1, uses_anonymous_args = 0
 837              		@ link register save eliminated.
 838 0000 80B4     		push	{r7}
 839              		.cfi_def_cfa_offset 4
 840              		.cfi_offset 7, -4
 841 0002 83B0     		sub	sp, sp, #12
 842              		.cfi_def_cfa_offset 16
 843 0004 00AF     		add	r7, sp, #0
 844              		.cfi_def_cfa_register 7
 845 0006 0346     		mov	r3, r0
 846 0008 FB71     		strb	r3, [r7, #7]
 600:.\Generated_Source\PSoC5/cyfitter_cfg.c **** 	if (channel < 3)
 847              		.loc 1 600 0
 848 000a FB79     		ldrb	r3, [r7, #7]	@ zero_extendqisi2
 849 000c 022B     		cmp	r3, #2
 850 000e 28D8     		bhi	.L36
 601:.\Generated_Source\PSoC5/cyfitter_cfg.c **** 	{
 602:.\Generated_Source\PSoC5/cyfitter_cfg.c **** 		channel += channel;
 851              		.loc 1 602 0
 852 0010 FA79     		ldrb	r2, [r7, #7]
 853 0012 FB79     		ldrb	r3, [r7, #7]
 854 0014 1344     		add	r3, r3, r2
 855 0016 FB71     		strb	r3, [r7, #7]
 603:.\Generated_Source\PSoC5/cyfitter_cfg.c **** 		*AMux_CYAMUXSIDE_A__addrTable[channel] &= (uint8)~AMux_CYAMUXSIDE_A__maskTable[channel];
 856              		.loc 1 603 0
 857 0018 FB79     		ldrb	r3, [r7, #7]	@ zero_extendqisi2
 858 001a 144A     		ldr	r2, .L38
 859 001c 52F82330 		ldr	r3, [r2, r3, lsl #2]
 860 0020 FA79     		ldrb	r2, [r7, #7]	@ zero_extendqisi2
 861 0022 1249     		ldr	r1, .L38
 862 0024 51F82220 		ldr	r2, [r1, r2, lsl #2]
 863 0028 1178     		ldrb	r1, [r2]	@ zero_extendqisi2
 864 002a FA79     		ldrb	r2, [r7, #7]	@ zero_extendqisi2
 865 002c 1048     		ldr	r0, .L38+4
 866 002e 825C     		ldrb	r2, [r0, r2]	@ zero_extendqisi2
 867 0030 D243     		mvns	r2, r2
 868 0032 D2B2     		uxtb	r2, r2
 869 0034 0A40     		ands	r2, r2, r1
 870 0036 D2B2     		uxtb	r2, r2
 871 0038 1A70     		strb	r2, [r3]
 604:.\Generated_Source\PSoC5/cyfitter_cfg.c **** 		channel++;
 872              		.loc 1 604 0
 873 003a FB79     		ldrb	r3, [r7, #7]	@ zero_extendqisi2
ARM GAS  C:\Users\nm\AppData\Local\Temp\ccfftuKh.s 			page 27


 874 003c 0133     		adds	r3, r3, #1
 875 003e FB71     		strb	r3, [r7, #7]
 605:.\Generated_Source\PSoC5/cyfitter_cfg.c **** 		*AMux_CYAMUXSIDE_A__addrTable[channel] &= (uint8)~AMux_CYAMUXSIDE_A__maskTable[channel];
 876              		.loc 1 605 0
 877 0040 FB79     		ldrb	r3, [r7, #7]	@ zero_extendqisi2
 878 0042 0A4A     		ldr	r2, .L38
 879 0044 52F82330 		ldr	r3, [r2, r3, lsl #2]
 880 0048 FA79     		ldrb	r2, [r7, #7]	@ zero_extendqisi2
 881 004a 0849     		ldr	r1, .L38
 882 004c 51F82220 		ldr	r2, [r1, r2, lsl #2]
 883 0050 1178     		ldrb	r1, [r2]	@ zero_extendqisi2
 884 0052 FA79     		ldrb	r2, [r7, #7]	@ zero_extendqisi2
 885 0054 0648     		ldr	r0, .L38+4
 886 0056 825C     		ldrb	r2, [r0, r2]	@ zero_extendqisi2
 887 0058 D243     		mvns	r2, r2
 888 005a D2B2     		uxtb	r2, r2
 889 005c 0A40     		ands	r2, r2, r1
 890 005e D2B2     		uxtb	r2, r2
 891 0060 1A70     		strb	r2, [r3]
 892              	.L36:
 606:.\Generated_Source\PSoC5/cyfitter_cfg.c **** 	}
 607:.\Generated_Source\PSoC5/cyfitter_cfg.c **** }
 893              		.loc 1 607 0
 894 0062 0C37     		adds	r7, r7, #12
 895              		.cfi_def_cfa_offset 4
 896 0064 BD46     		mov	sp, r7
 897              		.cfi_def_cfa_register 13
 898              		@ sp needed
 899 0066 5DF8047B 		ldr	r7, [sp], #4
 900              		.cfi_restore 7
 901              		.cfi_def_cfa_offset 0
 902 006a 7047     		bx	lr
 903              	.L39:
 904              		.align	2
 905              	.L38:
 906 006c 00000000 		.word	AMux_CYAMUXSIDE_A__addrTable
 907 0070 00000000 		.word	AMux_CYAMUXSIDE_A__maskTable
 908              		.cfi_endproc
 909              	.LFE9:
 910              		.size	AMux_CYAMUXSIDE_A_Unset, .-AMux_CYAMUXSIDE_A_Unset
 911              		.global	AMux_CYAMUXSIDE_B__addrTable
 912              		.section	.rodata
 913 001e 0000     		.align	2
 914              		.type	AMux_CYAMUXSIDE_B__addrTable, %object
 915              		.size	AMux_CYAMUXSIDE_B__addrTable, 24
 916              	AMux_CYAMUXSIDE_B__addrTable:
 917 0020 045B0040 		.word	1073765124
 918 0024 24430040 		.word	1073759012
 919 0028 415B0040 		.word	1073765185
 920 002c 045B0040 		.word	1073765124
 921 0030 045B0040 		.word	1073765124
 922 0034 24430040 		.word	1073759012
 923              		.global	AMux_CYAMUXSIDE_B__maskTable
 924              		.align	2
 925              		.type	AMux_CYAMUXSIDE_B__maskTable, %object
 926              		.size	AMux_CYAMUXSIDE_B__maskTable, 6
 927              	AMux_CYAMUXSIDE_B__maskTable:
ARM GAS  C:\Users\nm\AppData\Local\Temp\ccfftuKh.s 			page 28


 928 0038 20       		.byte	32
 929 0039 00       		.byte	0
 930 003a 04       		.byte	4
 931 003b 80       		.byte	-128
 932 003c 20       		.byte	32
 933 003d 00       		.byte	0
 934              		.section	.text.AMux_CYAMUXSIDE_B_Set,"ax",%progbits
 935              		.align	2
 936              		.global	AMux_CYAMUXSIDE_B_Set
 937              		.thumb
 938              		.thumb_func
 939              		.type	AMux_CYAMUXSIDE_B_Set, %function
 940              	AMux_CYAMUXSIDE_B_Set:
 941              	.LFB10:
 608:.\Generated_Source\PSoC5/cyfitter_cfg.c **** 
 609:.\Generated_Source\PSoC5/cyfitter_cfg.c **** /* This is an implementation detail of the AMux. Code that depends on it may be
 610:.\Generated_Source\PSoC5/cyfitter_cfg.c ****    incompatible with other versions of PSoC Creator. */
 611:.\Generated_Source\PSoC5/cyfitter_cfg.c **** uint8 CYXDATA * const CYCODE AMux_CYAMUXSIDE_B__addrTable[6] = {
 612:.\Generated_Source\PSoC5/cyfitter_cfg.c **** 	(uint8 CYXDATA *)CYREG_DSM0_SW4, (uint8 CYXDATA *)CY_AMUX_UNUSED, 
 613:.\Generated_Source\PSoC5/cyfitter_cfg.c **** 	(uint8 CYXDATA *)CYREG_OPAMP0_SW, (uint8 CYXDATA *)CYREG_DSM0_SW4, 
 614:.\Generated_Source\PSoC5/cyfitter_cfg.c **** 	(uint8 CYXDATA *)CYREG_DSM0_SW4, (uint8 CYXDATA *)CY_AMUX_UNUSED, 
 615:.\Generated_Source\PSoC5/cyfitter_cfg.c **** };
 616:.\Generated_Source\PSoC5/cyfitter_cfg.c **** 
 617:.\Generated_Source\PSoC5/cyfitter_cfg.c **** /* This is an implementation detail of the AMux. Code that depends on it may be
 618:.\Generated_Source\PSoC5/cyfitter_cfg.c ****    incompatible with other versions of PSoC Creator. */
 619:.\Generated_Source\PSoC5/cyfitter_cfg.c **** const uint8 CYCODE AMux_CYAMUXSIDE_B__maskTable[6] = {
 620:.\Generated_Source\PSoC5/cyfitter_cfg.c **** 	0x20u, 0x00u, 
 621:.\Generated_Source\PSoC5/cyfitter_cfg.c **** 	0x04u, 0x80u, 
 622:.\Generated_Source\PSoC5/cyfitter_cfg.c **** 	0x20u, 0x00u, 
 623:.\Generated_Source\PSoC5/cyfitter_cfg.c **** };
 624:.\Generated_Source\PSoC5/cyfitter_cfg.c **** 
 625:.\Generated_Source\PSoC5/cyfitter_cfg.c **** /*******************************************************************************
 626:.\Generated_Source\PSoC5/cyfitter_cfg.c **** * Function Name: AMux_CYAMUXSIDE_B_Set
 627:.\Generated_Source\PSoC5/cyfitter_cfg.c **** ********************************************************************************
 628:.\Generated_Source\PSoC5/cyfitter_cfg.c **** * Summary:
 629:.\Generated_Source\PSoC5/cyfitter_cfg.c **** *  This function is used to set a particular channel as active on the AMux.
 630:.\Generated_Source\PSoC5/cyfitter_cfg.c **** *
 631:.\Generated_Source\PSoC5/cyfitter_cfg.c **** * Parameters:  
 632:.\Generated_Source\PSoC5/cyfitter_cfg.c **** *   channel - The mux channel input to set as active
 633:.\Generated_Source\PSoC5/cyfitter_cfg.c **** *
 634:.\Generated_Source\PSoC5/cyfitter_cfg.c **** * Return:
 635:.\Generated_Source\PSoC5/cyfitter_cfg.c **** *   void
 636:.\Generated_Source\PSoC5/cyfitter_cfg.c **** *
 637:.\Generated_Source\PSoC5/cyfitter_cfg.c **** *******************************************************************************/
 638:.\Generated_Source\PSoC5/cyfitter_cfg.c **** void AMux_CYAMUXSIDE_B_Set(uint8 channel)
 639:.\Generated_Source\PSoC5/cyfitter_cfg.c **** {
 942              		.loc 1 639 0
 943              		.cfi_startproc
 944              		@ args = 0, pretend = 0, frame = 8
 945              		@ frame_needed = 1, uses_anonymous_args = 0
 946              		@ link register save eliminated.
 947 0000 80B4     		push	{r7}
 948              		.cfi_def_cfa_offset 4
 949              		.cfi_offset 7, -4
 950 0002 83B0     		sub	sp, sp, #12
 951              		.cfi_def_cfa_offset 16
 952 0004 00AF     		add	r7, sp, #0
ARM GAS  C:\Users\nm\AppData\Local\Temp\ccfftuKh.s 			page 29


 953              		.cfi_def_cfa_register 7
 954 0006 0346     		mov	r3, r0
 955 0008 FB71     		strb	r3, [r7, #7]
 640:.\Generated_Source\PSoC5/cyfitter_cfg.c **** 	if (channel < 3)
 956              		.loc 1 640 0
 957 000a FB79     		ldrb	r3, [r7, #7]	@ zero_extendqisi2
 958 000c 022B     		cmp	r3, #2
 959 000e 24D8     		bhi	.L40
 641:.\Generated_Source\PSoC5/cyfitter_cfg.c **** 	{
 642:.\Generated_Source\PSoC5/cyfitter_cfg.c **** 		channel += channel;
 960              		.loc 1 642 0
 961 0010 FA79     		ldrb	r2, [r7, #7]
 962 0012 FB79     		ldrb	r3, [r7, #7]
 963 0014 1344     		add	r3, r3, r2
 964 0016 FB71     		strb	r3, [r7, #7]
 643:.\Generated_Source\PSoC5/cyfitter_cfg.c **** 		*AMux_CYAMUXSIDE_B__addrTable[channel] |= AMux_CYAMUXSIDE_B__maskTable[channel];
 965              		.loc 1 643 0
 966 0018 FB79     		ldrb	r3, [r7, #7]	@ zero_extendqisi2
 967 001a 124A     		ldr	r2, .L42
 968 001c 52F82330 		ldr	r3, [r2, r3, lsl #2]
 969 0020 FA79     		ldrb	r2, [r7, #7]	@ zero_extendqisi2
 970 0022 1049     		ldr	r1, .L42
 971 0024 51F82220 		ldr	r2, [r1, r2, lsl #2]
 972 0028 1178     		ldrb	r1, [r2]	@ zero_extendqisi2
 973 002a FA79     		ldrb	r2, [r7, #7]	@ zero_extendqisi2
 974 002c 0E48     		ldr	r0, .L42+4
 975 002e 825C     		ldrb	r2, [r0, r2]	@ zero_extendqisi2
 976 0030 0A43     		orrs	r2, r2, r1
 977 0032 D2B2     		uxtb	r2, r2
 978 0034 1A70     		strb	r2, [r3]
 644:.\Generated_Source\PSoC5/cyfitter_cfg.c **** 		channel++;
 979              		.loc 1 644 0
 980 0036 FB79     		ldrb	r3, [r7, #7]	@ zero_extendqisi2
 981 0038 0133     		adds	r3, r3, #1
 982 003a FB71     		strb	r3, [r7, #7]
 645:.\Generated_Source\PSoC5/cyfitter_cfg.c **** 		*AMux_CYAMUXSIDE_B__addrTable[channel] |= AMux_CYAMUXSIDE_B__maskTable[channel];
 983              		.loc 1 645 0
 984 003c FB79     		ldrb	r3, [r7, #7]	@ zero_extendqisi2
 985 003e 094A     		ldr	r2, .L42
 986 0040 52F82330 		ldr	r3, [r2, r3, lsl #2]
 987 0044 FA79     		ldrb	r2, [r7, #7]	@ zero_extendqisi2
 988 0046 0749     		ldr	r1, .L42
 989 0048 51F82220 		ldr	r2, [r1, r2, lsl #2]
 990 004c 1178     		ldrb	r1, [r2]	@ zero_extendqisi2
 991 004e FA79     		ldrb	r2, [r7, #7]	@ zero_extendqisi2
 992 0050 0548     		ldr	r0, .L42+4
 993 0052 825C     		ldrb	r2, [r0, r2]	@ zero_extendqisi2
 994 0054 0A43     		orrs	r2, r2, r1
 995 0056 D2B2     		uxtb	r2, r2
 996 0058 1A70     		strb	r2, [r3]
 997              	.L40:
 646:.\Generated_Source\PSoC5/cyfitter_cfg.c **** 	}
 647:.\Generated_Source\PSoC5/cyfitter_cfg.c **** }
 998              		.loc 1 647 0
 999 005a 0C37     		adds	r7, r7, #12
 1000              		.cfi_def_cfa_offset 4
 1001 005c BD46     		mov	sp, r7
ARM GAS  C:\Users\nm\AppData\Local\Temp\ccfftuKh.s 			page 30


 1002              		.cfi_def_cfa_register 13
 1003              		@ sp needed
 1004 005e 5DF8047B 		ldr	r7, [sp], #4
 1005              		.cfi_restore 7
 1006              		.cfi_def_cfa_offset 0
 1007 0062 7047     		bx	lr
 1008              	.L43:
 1009              		.align	2
 1010              	.L42:
 1011 0064 00000000 		.word	AMux_CYAMUXSIDE_B__addrTable
 1012 0068 00000000 		.word	AMux_CYAMUXSIDE_B__maskTable
 1013              		.cfi_endproc
 1014              	.LFE10:
 1015              		.size	AMux_CYAMUXSIDE_B_Set, .-AMux_CYAMUXSIDE_B_Set
 1016              		.section	.text.AMux_CYAMUXSIDE_B_Unset,"ax",%progbits
 1017              		.align	2
 1018              		.global	AMux_CYAMUXSIDE_B_Unset
 1019              		.thumb
 1020              		.thumb_func
 1021              		.type	AMux_CYAMUXSIDE_B_Unset, %function
 1022              	AMux_CYAMUXSIDE_B_Unset:
 1023              	.LFB11:
 648:.\Generated_Source\PSoC5/cyfitter_cfg.c **** 
 649:.\Generated_Source\PSoC5/cyfitter_cfg.c **** /*******************************************************************************
 650:.\Generated_Source\PSoC5/cyfitter_cfg.c **** * Function Name: AMux_CYAMUXSIDE_B_Unset
 651:.\Generated_Source\PSoC5/cyfitter_cfg.c **** ********************************************************************************
 652:.\Generated_Source\PSoC5/cyfitter_cfg.c **** * Summary:
 653:.\Generated_Source\PSoC5/cyfitter_cfg.c **** *  This function is used to clear a particular channel from being active on the
 654:.\Generated_Source\PSoC5/cyfitter_cfg.c **** *  AMux.
 655:.\Generated_Source\PSoC5/cyfitter_cfg.c **** *
 656:.\Generated_Source\PSoC5/cyfitter_cfg.c **** * Parameters:  
 657:.\Generated_Source\PSoC5/cyfitter_cfg.c **** *   channel - The mux channel input to mark inactive
 658:.\Generated_Source\PSoC5/cyfitter_cfg.c **** *
 659:.\Generated_Source\PSoC5/cyfitter_cfg.c **** * Return:
 660:.\Generated_Source\PSoC5/cyfitter_cfg.c **** *   void
 661:.\Generated_Source\PSoC5/cyfitter_cfg.c **** *
 662:.\Generated_Source\PSoC5/cyfitter_cfg.c **** *******************************************************************************/
 663:.\Generated_Source\PSoC5/cyfitter_cfg.c **** void AMux_CYAMUXSIDE_B_Unset(uint8 channel)
 664:.\Generated_Source\PSoC5/cyfitter_cfg.c **** {
 1024              		.loc 1 664 0
 1025              		.cfi_startproc
 1026              		@ args = 0, pretend = 0, frame = 8
 1027              		@ frame_needed = 1, uses_anonymous_args = 0
 1028              		@ link register save eliminated.
 1029 0000 80B4     		push	{r7}
 1030              		.cfi_def_cfa_offset 4
 1031              		.cfi_offset 7, -4
 1032 0002 83B0     		sub	sp, sp, #12
 1033              		.cfi_def_cfa_offset 16
 1034 0004 00AF     		add	r7, sp, #0
 1035              		.cfi_def_cfa_register 7
 1036 0006 0346     		mov	r3, r0
 1037 0008 FB71     		strb	r3, [r7, #7]
 665:.\Generated_Source\PSoC5/cyfitter_cfg.c **** 	if (channel < 3)
 1038              		.loc 1 665 0
 1039 000a FB79     		ldrb	r3, [r7, #7]	@ zero_extendqisi2
 1040 000c 022B     		cmp	r3, #2
ARM GAS  C:\Users\nm\AppData\Local\Temp\ccfftuKh.s 			page 31


 1041 000e 28D8     		bhi	.L44
 666:.\Generated_Source\PSoC5/cyfitter_cfg.c **** 	{
 667:.\Generated_Source\PSoC5/cyfitter_cfg.c **** 		channel += channel;
 1042              		.loc 1 667 0
 1043 0010 FA79     		ldrb	r2, [r7, #7]
 1044 0012 FB79     		ldrb	r3, [r7, #7]
 1045 0014 1344     		add	r3, r3, r2
 1046 0016 FB71     		strb	r3, [r7, #7]
 668:.\Generated_Source\PSoC5/cyfitter_cfg.c **** 		*AMux_CYAMUXSIDE_B__addrTable[channel] &= (uint8)~AMux_CYAMUXSIDE_B__maskTable[channel];
 1047              		.loc 1 668 0
 1048 0018 FB79     		ldrb	r3, [r7, #7]	@ zero_extendqisi2
 1049 001a 144A     		ldr	r2, .L46
 1050 001c 52F82330 		ldr	r3, [r2, r3, lsl #2]
 1051 0020 FA79     		ldrb	r2, [r7, #7]	@ zero_extendqisi2
 1052 0022 1249     		ldr	r1, .L46
 1053 0024 51F82220 		ldr	r2, [r1, r2, lsl #2]
 1054 0028 1178     		ldrb	r1, [r2]	@ zero_extendqisi2
 1055 002a FA79     		ldrb	r2, [r7, #7]	@ zero_extendqisi2
 1056 002c 1048     		ldr	r0, .L46+4
 1057 002e 825C     		ldrb	r2, [r0, r2]	@ zero_extendqisi2
 1058 0030 D243     		mvns	r2, r2
 1059 0032 D2B2     		uxtb	r2, r2
 1060 0034 0A40     		ands	r2, r2, r1
 1061 0036 D2B2     		uxtb	r2, r2
 1062 0038 1A70     		strb	r2, [r3]
 669:.\Generated_Source\PSoC5/cyfitter_cfg.c **** 		channel++;
 1063              		.loc 1 669 0
 1064 003a FB79     		ldrb	r3, [r7, #7]	@ zero_extendqisi2
 1065 003c 0133     		adds	r3, r3, #1
 1066 003e FB71     		strb	r3, [r7, #7]
 670:.\Generated_Source\PSoC5/cyfitter_cfg.c **** 		*AMux_CYAMUXSIDE_B__addrTable[channel] &= (uint8)~AMux_CYAMUXSIDE_B__maskTable[channel];
 1067              		.loc 1 670 0
 1068 0040 FB79     		ldrb	r3, [r7, #7]	@ zero_extendqisi2
 1069 0042 0A4A     		ldr	r2, .L46
 1070 0044 52F82330 		ldr	r3, [r2, r3, lsl #2]
 1071 0048 FA79     		ldrb	r2, [r7, #7]	@ zero_extendqisi2
 1072 004a 0849     		ldr	r1, .L46
 1073 004c 51F82220 		ldr	r2, [r1, r2, lsl #2]
 1074 0050 1178     		ldrb	r1, [r2]	@ zero_extendqisi2
 1075 0052 FA79     		ldrb	r2, [r7, #7]	@ zero_extendqisi2
 1076 0054 0648     		ldr	r0, .L46+4
 1077 0056 825C     		ldrb	r2, [r0, r2]	@ zero_extendqisi2
 1078 0058 D243     		mvns	r2, r2
 1079 005a D2B2     		uxtb	r2, r2
 1080 005c 0A40     		ands	r2, r2, r1
 1081 005e D2B2     		uxtb	r2, r2
 1082 0060 1A70     		strb	r2, [r3]
 1083              	.L44:
 671:.\Generated_Source\PSoC5/cyfitter_cfg.c **** 	}
 672:.\Generated_Source\PSoC5/cyfitter_cfg.c **** }
 1084              		.loc 1 672 0
 1085 0062 0C37     		adds	r7, r7, #12
 1086              		.cfi_def_cfa_offset 4
 1087 0064 BD46     		mov	sp, r7
 1088              		.cfi_def_cfa_register 13
 1089              		@ sp needed
 1090 0066 5DF8047B 		ldr	r7, [sp], #4
ARM GAS  C:\Users\nm\AppData\Local\Temp\ccfftuKh.s 			page 32


 1091              		.cfi_restore 7
 1092              		.cfi_def_cfa_offset 0
 1093 006a 7047     		bx	lr
 1094              	.L47:
 1095              		.align	2
 1096              	.L46:
 1097 006c 00000000 		.word	AMux_CYAMUXSIDE_B__addrTable
 1098 0070 00000000 		.word	AMux_CYAMUXSIDE_B__maskTable
 1099              		.cfi_endproc
 1100              	.LFE11:
 1101              		.size	AMux_CYAMUXSIDE_B_Unset, .-AMux_CYAMUXSIDE_B_Unset
 1102              		.section	.text.cyfitter_cfg,"ax",%progbits
 1103              		.align	2
 1104              		.global	cyfitter_cfg
 1105              		.thumb
 1106              		.thumb_func
 1107              		.type	cyfitter_cfg, %function
 1108              	cyfitter_cfg:
 1109              	.LFB12:
 673:.\Generated_Source\PSoC5/cyfitter_cfg.c **** 
 674:.\Generated_Source\PSoC5/cyfitter_cfg.c **** 
 675:.\Generated_Source\PSoC5/cyfitter_cfg.c **** 
 676:.\Generated_Source\PSoC5/cyfitter_cfg.c **** /*******************************************************************************
 677:.\Generated_Source\PSoC5/cyfitter_cfg.c **** * Function Name: cyfitter_cfg
 678:.\Generated_Source\PSoC5/cyfitter_cfg.c **** ********************************************************************************
 679:.\Generated_Source\PSoC5/cyfitter_cfg.c **** * Summary:
 680:.\Generated_Source\PSoC5/cyfitter_cfg.c **** *  This function is called by the start-up code for the selected device. It
 681:.\Generated_Source\PSoC5/cyfitter_cfg.c **** *  performs all of the necessary device configuration based on the design
 682:.\Generated_Source\PSoC5/cyfitter_cfg.c **** *  settings.  This includes settings from the Design Wide Resources (DWR) such
 683:.\Generated_Source\PSoC5/cyfitter_cfg.c **** *  as Clocks and Pins as well as any component configuration that is necessary.
 684:.\Generated_Source\PSoC5/cyfitter_cfg.c **** *
 685:.\Generated_Source\PSoC5/cyfitter_cfg.c **** * Parameters:  
 686:.\Generated_Source\PSoC5/cyfitter_cfg.c **** *   void
 687:.\Generated_Source\PSoC5/cyfitter_cfg.c **** *
 688:.\Generated_Source\PSoC5/cyfitter_cfg.c **** * Return:
 689:.\Generated_Source\PSoC5/cyfitter_cfg.c **** *   void
 690:.\Generated_Source\PSoC5/cyfitter_cfg.c **** *
 691:.\Generated_Source\PSoC5/cyfitter_cfg.c **** *******************************************************************************/
 692:.\Generated_Source\PSoC5/cyfitter_cfg.c **** 
 693:.\Generated_Source\PSoC5/cyfitter_cfg.c **** void cyfitter_cfg(void)
 694:.\Generated_Source\PSoC5/cyfitter_cfg.c **** {
 1110              		.loc 1 694 0
 1111              		.cfi_startproc
 1112              		@ args = 0, pretend = 0, frame = 0
 1113              		@ frame_needed = 1, uses_anonymous_args = 0
 1114 0000 80B5     		push	{r7, lr}
 1115              		.cfi_def_cfa_offset 8
 1116              		.cfi_offset 7, -8
 1117              		.cfi_offset 14, -4
 1118 0002 00AF     		add	r7, sp, #0
 1119              		.cfi_def_cfa_register 7
 695:.\Generated_Source\PSoC5/cyfitter_cfg.c **** #ifdef CYGlobalIntDisable
 696:.\Generated_Source\PSoC5/cyfitter_cfg.c **** 	/* Disable interrupts by default. Let user enable if/when they want. */
 697:.\Generated_Source\PSoC5/cyfitter_cfg.c **** 	CYGlobalIntDisable
 1120              		.loc 1 697 0
 1121              	@ 697 ".\Generated_Source\PSoC5\cyfitter_cfg.c" 1
 1122 0004 72B6     		CPSID   i
ARM GAS  C:\Users\nm\AppData\Local\Temp\ccfftuKh.s 			page 33


 1123              	@ 0 "" 2
 698:.\Generated_Source\PSoC5/cyfitter_cfg.c **** #endif
 699:.\Generated_Source\PSoC5/cyfitter_cfg.c **** 
 700:.\Generated_Source\PSoC5/cyfitter_cfg.c **** 
 701:.\Generated_Source\PSoC5/cyfitter_cfg.c **** 	/* Set Flash Cycles based on max possible frequency in case a glitch occurs during ClockSetup(). *
 702:.\Generated_Source\PSoC5/cyfitter_cfg.c **** 	CY_SET_XTND_REG8((void CYFAR *)(CYREG_CACHE_CC_CTL), (((CYDEV_INSTRUCT_CACHE_ENABLED) != 0) ? 0x61
 1124              		.loc 1 702 0
 1125              		.thumb
 1126 0006 294B     		ldr	r3, .L49
 1127 0008 6122     		movs	r2, #97
 1128 000a 1A70     		strb	r2, [r3]
 703:.\Generated_Source\PSoC5/cyfitter_cfg.c **** 	/* Setup clocks based on selections from Clock DWR */
 704:.\Generated_Source\PSoC5/cyfitter_cfg.c **** 	ClockSetup();
 1129              		.loc 1 704 0
 1130 000c FFF7FEFF 		bl	ClockSetup
 705:.\Generated_Source\PSoC5/cyfitter_cfg.c **** 	/* Set Flash Cycles based on newly configured 24.00MHz Bus Clock. */
 706:.\Generated_Source\PSoC5/cyfitter_cfg.c **** 	CY_SET_XTND_REG8((void CYFAR *)(CYREG_CACHE_CC_CTL), (((CYDEV_INSTRUCT_CACHE_ENABLED) != 0) ? 0x81
 1131              		.loc 1 706 0
 1132 0010 264B     		ldr	r3, .L49
 1133 0012 8122     		movs	r2, #129
 1134 0014 1A70     		strb	r2, [r3]
 707:.\Generated_Source\PSoC5/cyfitter_cfg.c **** 	/* Enable/Disable Debug functionality based on settings from System DWR */
 708:.\Generated_Source\PSoC5/cyfitter_cfg.c **** 	CY_SET_XTND_REG8((void CYFAR *)CYREG_MLOGIC_DEBUG, (CY_GET_XTND_REG8((void CYFAR *)CYREG_MLOGIC_DE
 1135              		.loc 1 708 0
 1136 0016 264A     		ldr	r2, .L49+4
 1137 0018 254B     		ldr	r3, .L49+4
 1138 001a 1B78     		ldrb	r3, [r3]
 1139 001c DBB2     		uxtb	r3, r3
 1140 001e 43F00403 		orr	r3, r3, #4
 1141 0022 DBB2     		uxtb	r3, r3
 1142 0024 1370     		strb	r3, [r2]
 709:.\Generated_Source\PSoC5/cyfitter_cfg.c **** 
 710:.\Generated_Source\PSoC5/cyfitter_cfg.c **** 	{
 711:.\Generated_Source\PSoC5/cyfitter_cfg.c **** 		cfg_dma_init();
 1143              		.loc 1 711 0
 1144 0026 FFF7FEFF 		bl	cfg_dma_init
 712:.\Generated_Source\PSoC5/cyfitter_cfg.c **** 
 713:.\Generated_Source\PSoC5/cyfitter_cfg.c **** 		/* Perform normal device configuration. Order is not critical for these items. */
 714:.\Generated_Source\PSoC5/cyfitter_cfg.c **** 		CY_SET_XTND_REG8((void CYFAR *)(CYREG_DSM0_CR3), 0x0Au);
 1145              		.loc 1 714 0
 1146 002a 224B     		ldr	r3, .L49+8
 1147 002c 0A22     		movs	r2, #10
 1148 002e 1A70     		strb	r2, [r3]
 715:.\Generated_Source\PSoC5/cyfitter_cfg.c **** 
 716:.\Generated_Source\PSoC5/cyfitter_cfg.c **** 		/* Enable digital routing */
 717:.\Generated_Source\PSoC5/cyfitter_cfg.c **** 		CY_SET_XTND_REG8((void CYFAR *)CYREG_BCTL0_BANK_CTL, CY_GET_XTND_REG8((void CYFAR *)CYREG_BCTL0_B
 1149              		.loc 1 717 0
 1150 0030 214A     		ldr	r2, .L49+12
 1151 0032 214B     		ldr	r3, .L49+12
 1152 0034 1B78     		ldrb	r3, [r3]
 1153 0036 DBB2     		uxtb	r3, r3
 1154 0038 43F00203 		orr	r3, r3, #2
 1155 003c DBB2     		uxtb	r3, r3
 1156 003e 1370     		strb	r3, [r2]
 718:.\Generated_Source\PSoC5/cyfitter_cfg.c **** 		CY_SET_XTND_REG8((void CYFAR *)CYREG_BCTL1_BANK_CTL, CY_GET_XTND_REG8((void CYFAR *)CYREG_BCTL1_B
 1157              		.loc 1 718 0
 1158 0040 1E4A     		ldr	r2, .L49+16
ARM GAS  C:\Users\nm\AppData\Local\Temp\ccfftuKh.s 			page 34


 1159 0042 1E4B     		ldr	r3, .L49+16
 1160 0044 1B78     		ldrb	r3, [r3]
 1161 0046 DBB2     		uxtb	r3, r3
 1162 0048 43F00203 		orr	r3, r3, #2
 1163 004c DBB2     		uxtb	r3, r3
 1164 004e 1370     		strb	r3, [r2]
 719:.\Generated_Source\PSoC5/cyfitter_cfg.c **** 
 720:.\Generated_Source\PSoC5/cyfitter_cfg.c **** 		/* Enable UDB array */
 721:.\Generated_Source\PSoC5/cyfitter_cfg.c **** 		CY_SET_XTND_REG8((void CYFAR *)CYREG_PM_ACT_CFG0, CY_GET_XTND_REG8((void CYFAR *)CYREG_PM_ACT_CFG
 1165              		.loc 1 721 0
 1166 0050 1B4A     		ldr	r2, .L49+20
 1167 0052 1B4B     		ldr	r3, .L49+20
 1168 0054 1B78     		ldrb	r3, [r3]
 1169 0056 DBB2     		uxtb	r3, r3
 1170 0058 43F04003 		orr	r3, r3, #64
 1171 005c DBB2     		uxtb	r3, r3
 1172 005e 1370     		strb	r3, [r2]
 722:.\Generated_Source\PSoC5/cyfitter_cfg.c **** 		CY_SET_XTND_REG8((void CYFAR *)CYREG_PM_AVAIL_CR2, CY_GET_XTND_REG8((void CYFAR *)CYREG_PM_AVAIL_
 1173              		.loc 1 722 0
 1174 0060 184A     		ldr	r2, .L49+24
 1175 0062 184B     		ldr	r3, .L49+24
 1176 0064 1B78     		ldrb	r3, [r3]
 1177 0066 DBB2     		uxtb	r3, r3
 1178 0068 43F01003 		orr	r3, r3, #16
 1179 006c DBB2     		uxtb	r3, r3
 1180 006e 1370     		strb	r3, [r2]
 723:.\Generated_Source\PSoC5/cyfitter_cfg.c **** 	}
 724:.\Generated_Source\PSoC5/cyfitter_cfg.c **** 
 725:.\Generated_Source\PSoC5/cyfitter_cfg.c **** 
 726:.\Generated_Source\PSoC5/cyfitter_cfg.c **** 	/* Perform second pass device configuration. These items must be configured in specific order afte
 727:.\Generated_Source\PSoC5/cyfitter_cfg.c **** 	CYCONFIGCPY((void CYFAR *)(CYREG_PRT0_DM0), (const void CYFAR *)(BS_IOPINS0_0_VAL), 8u);
 1181              		.loc 1 727 0
 1182 0070 1548     		ldr	r0, .L49+28
 1183 0072 1649     		ldr	r1, .L49+32
 1184 0074 0822     		movs	r2, #8
 1185 0076 FFF7FEFF 		bl	CYCONFIGCPY
 728:.\Generated_Source\PSoC5/cyfitter_cfg.c **** 	CYCONFIGCPY((void CYFAR *)(CYREG_PRT12_DR), (const void CYFAR *)(BS_IOPINS0_7_VAL), 10u);
 1186              		.loc 1 728 0
 1187 007a 1548     		ldr	r0, .L49+36
 1188 007c 1549     		ldr	r1, .L49+40
 1189 007e 0A22     		movs	r2, #10
 1190 0080 FFF7FEFF 		bl	CYCONFIGCPY
 729:.\Generated_Source\PSoC5/cyfitter_cfg.c **** 	/* Switch Boost to the precision bandgap reference from its internal reference */
 730:.\Generated_Source\PSoC5/cyfitter_cfg.c **** 	CY_SET_REG8((void CYXDATA *)CYREG_BOOST_CR2, (CY_GET_REG8((void CYXDATA *)CYREG_BOOST_CR2) | 0x08u
 1191              		.loc 1 730 0
 1192 0084 144A     		ldr	r2, .L49+44
 1193 0086 144B     		ldr	r3, .L49+44
 1194 0088 1B78     		ldrb	r3, [r3]
 1195 008a DBB2     		uxtb	r3, r3
 1196 008c 43F00803 		orr	r3, r3, #8
 1197 0090 DBB2     		uxtb	r3, r3
 1198 0092 1370     		strb	r3, [r2]
 731:.\Generated_Source\PSoC5/cyfitter_cfg.c **** 	CY_SET_XTND_REG8((void CYFAR *)(CYREG_PANTHER_WAITPIPE), 0x01u);
 1199              		.loc 1 731 0
 1200 0094 114B     		ldr	r3, .L49+48
 1201 0096 0122     		movs	r2, #1
 1202 0098 1A70     		strb	r2, [r3]
ARM GAS  C:\Users\nm\AppData\Local\Temp\ccfftuKh.s 			page 35


 732:.\Generated_Source\PSoC5/cyfitter_cfg.c **** 
 733:.\Generated_Source\PSoC5/cyfitter_cfg.c **** 	/* Perform basic analog initialization to defaults */
 734:.\Generated_Source\PSoC5/cyfitter_cfg.c **** 	AnalogSetDefault();
 1203              		.loc 1 734 0
 1204 009a FFF7FEFF 		bl	AnalogSetDefault
 735:.\Generated_Source\PSoC5/cyfitter_cfg.c **** 
 736:.\Generated_Source\PSoC5/cyfitter_cfg.c **** 	/* Configure alternate active mode */
 737:.\Generated_Source\PSoC5/cyfitter_cfg.c **** 	CYCONFIGCPY((void CYFAR *)CYDEV_PM_STBY_BASE, (const void CYFAR *)CYDEV_PM_ACT_BASE, 14u);
 1205              		.loc 1 737 0
 1206 009e 1048     		ldr	r0, .L49+52
 1207 00a0 0749     		ldr	r1, .L49+20
 1208 00a2 0E22     		movs	r2, #14
 1209 00a4 FFF7FEFF 		bl	CYCONFIGCPY
 738:.\Generated_Source\PSoC5/cyfitter_cfg.c **** }
 1210              		.loc 1 738 0
 1211 00a8 80BD     		pop	{r7, pc}
 1212              	.L50:
 1213 00aa 00BF     		.align	2
 1214              	.L49:
 1215 00ac 00480040 		.word	1073760256
 1216 00b0 E8460040 		.word	1073759976
 1217 00b4 83580040 		.word	1073764483
 1218 00b8 03500140 		.word	1073827843
 1219 00bc 13500140 		.word	1073827859
 1220 00c0 A0430040 		.word	1073759136
 1221 00c4 C2430040 		.word	1073759170
 1222 00c8 02510040 		.word	1073762562
 1223 00cc B8080048 		.word	1207961784
 1224 00d0 C0510040 		.word	1073762752
 1225 00d4 C0080048 		.word	1207961792
 1226 00d8 22430040 		.word	1073759010
 1227 00dc 04000840 		.word	1074266116
 1228 00e0 B0430040 		.word	1073759152
 1229              		.cfi_endproc
 1230              	.LFE12:
 1231              		.size	cyfitter_cfg, .-cyfitter_cfg
 1232              		.bss
 1233              		.align	3
 1234              	DMA_ZERO_VAL.4860:
 1235 0000 00000000 		.space	4
 1236 0004 00000000 		.section	.dma_init,"a",%progbits
 1237              		.align	2
 1238              		.type	CFG_TD_LIST0.4861, %object
 1239              		.size	CFG_TD_LIST0.4861, 320
 1240              	CFG_TD_LIST0.4861:
 1241 0000 0800     		.short	8
 1242 0002 02       		.byte	2
 1243 0003 23       		.byte	35
 1244 0004 0000     		.short	0
 1245 0006 0876     		.short	30216
 1246 0008 0800     		.short	8
 1247 000a 03       		.byte	3
 1248 000b 23       		.byte	35
 1249 000c 0000     		.short	0
 1250 000e 1076     		.short	30224
 1251 0010 0800     		.short	8
 1252 0012 04       		.byte	4
ARM GAS  C:\Users\nm\AppData\Local\Temp\ccfftuKh.s 			page 36


 1253 0013 23       		.byte	35
 1254 0014 0000     		.short	0
 1255 0016 2876     		.short	30248
 1256 0018 0800     		.short	8
 1257 001a 05       		.byte	5
 1258 001b 23       		.byte	35
 1259 001c 0000     		.short	0
 1260 001e 3076     		.short	30256
 1261 0020 0500     		.short	5
 1262 0022 06       		.byte	6
 1263 0023 23       		.byte	35
 1264 0024 0000     		.short	0
 1265 0026 2070     		.short	28704
 1266 0028 0500     		.short	5
 1267 002a 07       		.byte	7
 1268 002b 23       		.byte	35
 1269 002c 0000     		.short	0
 1270 002e 3070     		.short	28720
 1271 0030 0500     		.short	5
 1272 0032 08       		.byte	8
 1273 0033 23       		.byte	35
 1274 0034 0000     		.short	0
 1275 0036 6070     		.short	28768
 1276 0038 0500     		.short	5
 1277 003a FE       		.byte	-2
 1278 003b 23       		.byte	35
 1279 003c 0000     		.short	0
 1280 003e 7070     		.short	28784
 1281 0040 6000     		.short	96
 1282 0042 0A       		.byte	10
 1283 0043 22       		.byte	34
 1284 0044 0000     		.short	0
 1285 0046 1051     		.short	20752
 1286 0048 1000     		.short	16
 1287 004a FE       		.byte	-2
 1288 004b 22       		.byte	34
 1289 004c 0000     		.short	0
 1290 004e F051     		.short	20976
 1291 0050 FF0F     		.short	4095
 1292 0052 0C       		.byte	12
 1293 0053 22       		.byte	34
 1294 0054 0000     		.short	0
 1295 0056 0000     		.short	0
 1296 0058 0100     		.short	1
 1297 005a 0D       		.byte	13
 1298 005b 22       		.byte	34
 1299 005c 0000     		.short	0
 1300 005e FF0F     		.short	4095
 1301 0060 8001     		.short	384
 1302 0062 0E       		.byte	14
 1303 0063 22       		.byte	34
 1304 0064 0000     		.short	0
 1305 0066 0014     		.short	5120
 1306 0068 0004     		.short	1024
 1307 006a 0F       		.byte	15
 1308 006b 22       		.byte	34
 1309 006c 0000     		.short	0
ARM GAS  C:\Users\nm\AppData\Local\Temp\ccfftuKh.s 			page 37


 1310 006e 0016     		.short	5632
 1311 0070 0004     		.short	1024
 1312 0072 10       		.byte	16
 1313 0073 22       		.byte	34
 1314 0074 0000     		.short	0
 1315 0076 0040     		.short	16384
 1316 0078 8000     		.short	128
 1317 007a 11       		.byte	17
 1318 007b 22       		.byte	34
 1319 007c 0000     		.short	0
 1320 007e 0045     		.short	17664
 1321 0080 8000     		.short	128
 1322 0082 12       		.byte	18
 1323 0083 22       		.byte	34
 1324 0084 0000     		.short	0
 1325 0086 0047     		.short	18176
 1326 0088 8000     		.short	128
 1327 008a 13       		.byte	19
 1328 008b 22       		.byte	34
 1329 008c 0000     		.short	0
 1330 008e 0049     		.short	18688
 1331 0090 8000     		.short	128
 1332 0092 14       		.byte	20
 1333 0093 22       		.byte	34
 1334 0094 0000     		.short	0
 1335 0096 004C     		.short	19456
 1336 0098 1000     		.short	16
 1337 009a FE       		.byte	-2
 1338 009b 22       		.byte	34
 1339 009c 0000     		.short	0
 1340 009e 0050     		.short	20480
 1341 00a0 0600     		.short	6
 1342 00a2 16       		.byte	22
 1343 00a3 23       		.byte	35
 1344 00a4 0000     		.short	0
 1345 00a6 6052     		.short	21088
 1346 00a8 2000     		.short	32
 1347 00aa FE       		.byte	-2
 1348 00ab 23       		.byte	35
 1349 00ac 0000     		.short	0
 1350 00ae 7065     		.short	25968
 1351 00b0 8000     		.short	128
 1352 00b2 18       		.byte	24
 1353 00b3 23       		.byte	35
 1354 00b4 0000     		.short	0
 1355 00b6 001A     		.short	6656
 1356 00b8 8000     		.short	128
 1357 00ba 19       		.byte	25
 1358 00bb 23       		.byte	35
 1359 00bc 0000     		.short	0
 1360 00be 801A     		.short	6784
 1361 00c0 1000     		.short	16
 1362 00c2 1A       		.byte	26
 1363 00c3 23       		.byte	35
 1364 00c4 0000     		.short	0
 1365 00c6 1050     		.short	20496
 1366 00c8 8000     		.short	128
ARM GAS  C:\Users\nm\AppData\Local\Temp\ccfftuKh.s 			page 38


 1367 00ca 1B       		.byte	27
 1368 00cb 23       		.byte	35
 1369 00cc 0000     		.short	0
 1370 00ce 004D     		.short	19712
 1371 00d0 8000     		.short	128
 1372 00d2 1C       		.byte	28
 1373 00d3 23       		.byte	35
 1374 00d4 0000     		.short	0
 1375 00d6 804D     		.short	19840
 1376 00d8 8000     		.short	128
 1377 00da 1D       		.byte	29
 1378 00db 23       		.byte	35
 1379 00dc 0000     		.short	0
 1380 00de 804C     		.short	19584
 1381 00e0 8000     		.short	128
 1382 00e2 1E       		.byte	30
 1383 00e3 23       		.byte	35
 1384 00e4 0000     		.short	0
 1385 00e6 8047     		.short	18304
 1386 00e8 8000     		.short	128
 1387 00ea 1F       		.byte	31
 1388 00eb 23       		.byte	35
 1389 00ec 0000     		.short	0
 1390 00ee 0046     		.short	17920
 1391 00f0 8000     		.short	128
 1392 00f2 20       		.byte	32
 1393 00f3 23       		.byte	35
 1394 00f4 0000     		.short	0
 1395 00f6 8046     		.short	18048
 1396 00f8 8000     		.short	128
 1397 00fa 21       		.byte	33
 1398 00fb 23       		.byte	35
 1399 00fc 0000     		.short	0
 1400 00fe 8045     		.short	17792
 1401 0100 8000     		.short	128
 1402 0102 22       		.byte	34
 1403 0103 23       		.byte	35
 1404 0104 0000     		.short	0
 1405 0106 0044     		.short	17408
 1406 0108 8000     		.short	128
 1407 010a 23       		.byte	35
 1408 010b 23       		.byte	35
 1409 010c 0000     		.short	0
 1410 010e 8044     		.short	17536
 1411 0110 8000     		.short	128
 1412 0112 24       		.byte	36
 1413 0113 23       		.byte	35
 1414 0114 0000     		.short	0
 1415 0116 001B     		.short	6912
 1416 0118 8000     		.short	128
 1417 011a 25       		.byte	37
 1418 011b 23       		.byte	35
 1419 011c 0000     		.short	0
 1420 011e 801B     		.short	7040
 1421 0120 8000     		.short	128
 1422 0122 26       		.byte	38
 1423 0123 23       		.byte	35
ARM GAS  C:\Users\nm\AppData\Local\Temp\ccfftuKh.s 			page 39


 1424 0124 0000     		.short	0
 1425 0126 8015     		.short	5504
 1426 0128 8000     		.short	128
 1427 012a 27       		.byte	39
 1428 012b 23       		.byte	35
 1429 012c 0000     		.short	0
 1430 012e 8049     		.short	18816
 1431 0130 8000     		.short	128
 1432 0132 28       		.byte	40
 1433 0133 23       		.byte	35
 1434 0134 0000     		.short	0
 1435 0136 0048     		.short	18432
 1436 0138 8000     		.short	128
 1437 013a FE       		.byte	-2
 1438 013b 23       		.byte	35
 1439 013c 0000     		.short	0
 1440 013e 8048     		.short	18560
 1441              		.section	.rodata
 1442 003e 0000     		.align	2
 1443              		.type	CFG_TD_ADDR0.4862, %object
 1444              		.size	CFG_TD_ADDR0.4862, 160
 1445              	CFG_TD_ADDR0.4862:
 1446 0040 60010000 		.word	CH1_ADDR_DATA0.4855
 1447 0044 58010000 		.word	CH2_ADDR_DATA0.4856
 1448 0048 50010000 		.word	CH5_ADDR_DATA0.4857
 1449 004c 48010000 		.word	CH6_ADDR_DATA0.4858
 1450 0050 40010000 		.word	DMA_TD_START_CMD.4859
 1451 0054 40010000 		.word	DMA_TD_START_CMD.4859
 1452 0058 40010000 		.word	DMA_TD_START_CMD.4859
 1453 005c 40010000 		.word	DMA_TD_START_CMD.4859
 1454 0060 00000000 		.word	DMA_ZERO_VAL.4860
 1455 0064 00000000 		.word	DMA_ZERO_VAL.4860
 1456 0068 00000000 		.word	DMA_ZERO_VAL.4860
 1457 006c 00000000 		.word	DMA_ZERO_VAL.4860
 1458 0070 00000000 		.word	DMA_ZERO_VAL.4860
 1459 0074 00000000 		.word	DMA_ZERO_VAL.4860
 1460 0078 00000000 		.word	DMA_ZERO_VAL.4860
 1461 007c 00000000 		.word	DMA_ZERO_VAL.4860
 1462 0080 00000000 		.word	DMA_ZERO_VAL.4860
 1463 0084 00000000 		.word	DMA_ZERO_VAL.4860
 1464 0088 00000000 		.word	DMA_ZERO_VAL.4860
 1465 008c 00000000 		.word	DMA_ZERO_VAL.4860
 1466 0090 00000048 		.word	1207959552
 1467 0094 08010048 		.word	1207959816
 1468 0098 08000048 		.word	1207959560
 1469 009c 88000048 		.word	1207959688
 1470 00a0 28010048 		.word	1207959848
 1471 00a4 38010048 		.word	1207959864
 1472 00a8 B8010048 		.word	1207959992
 1473 00ac 38020048 		.word	1207960120
 1474 00b0 B8020048 		.word	1207960248
 1475 00b4 38030048 		.word	1207960376
 1476 00b8 B8030048 		.word	1207960504
 1477 00bc 38040048 		.word	1207960632
 1478 00c0 B8040048 		.word	1207960760
 1479 00c4 38050048 		.word	1207960888
 1480 00c8 B8050048 		.word	1207961016
ARM GAS  C:\Users\nm\AppData\Local\Temp\ccfftuKh.s 			page 40


 1481 00cc 38060048 		.word	1207961144
 1482 00d0 B8060048 		.word	1207961272
 1483 00d4 38070048 		.word	1207961400
 1484 00d8 B8070048 		.word	1207961528
 1485 00dc 38080048 		.word	1207961656
 1486              		.section	.dma_init
 1487              		.align	2
 1488              		.type	DMA_TD_START_CMD.4859, %object
 1489              		.size	DMA_TD_START_CMD.4859, 5
 1490              	DMA_TD_START_CMD.4859:
 1491 0140 01       		.byte	1
 1492 0141 00       		.byte	0
 1493 0142 00       		.byte	0
 1494 0143 00       		.byte	0
 1495 0144 01       		.byte	1
 1496 0145 000000   		.align	2
 1497              		.type	CH6_ADDR_DATA0.4858, %object
 1498              		.size	CH6_ADDR_DATA0.4858, 8
 1499              	CH6_ADDR_DATA0.4858:
 1500 0148 01       		.byte	1
 1501 0149 00       		.byte	0
 1502 014a 00       		.byte	0
 1503 014b 00       		.byte	0
 1504 014c 00       		.byte	0
 1505 014d 48       		.byte	72
 1506 014e 01       		.byte	1
 1507 014f 40       		.byte	64
 1508              		.align	2
 1509              		.type	CH5_ADDR_DATA0.4857, %object
 1510              		.size	CH5_ADDR_DATA0.4857, 8
 1511              	CH5_ADDR_DATA0.4857:
 1512 0150 01       		.byte	1
 1513 0151 00       		.byte	0
 1514 0152 00       		.byte	0
 1515 0153 00       		.byte	0
 1516 0154 00       		.byte	0
 1517 0155 48       		.byte	72
 1518 0156 00       		.byte	0
 1519 0157 40       		.byte	64
 1520              		.align	2
 1521              		.type	CH2_ADDR_DATA0.4856, %object
 1522              		.size	CH2_ADDR_DATA0.4856, 8
 1523              	CH2_ADDR_DATA0.4856:
 1524 0158 01       		.byte	1
 1525 0159 00       		.byte	0
 1526 015a 00       		.byte	0
 1527 015b 00       		.byte	0
 1528 015c 00       		.byte	0
 1529 015d 20       		.byte	32
 1530 015e 01       		.byte	1
 1531 015f 40       		.byte	64
 1532              		.align	2
 1533              		.type	CH1_ADDR_DATA0.4855, %object
 1534              		.size	CH1_ADDR_DATA0.4855, 8
 1535              	CH1_ADDR_DATA0.4855:
 1536 0160 01       		.byte	1
 1537 0161 00       		.byte	0
ARM GAS  C:\Users\nm\AppData\Local\Temp\ccfftuKh.s 			page 41


 1538 0162 00       		.byte	0
 1539 0163 00       		.byte	0
 1540 0164 00       		.byte	0
 1541 0165 20       		.byte	32
 1542 0166 00       		.byte	0
 1543 0167 40       		.byte	64
 1544              		.text
 1545              	.Letext0:
 1546              		.file 2 "c:\\program files (x86)\\cypress\\psoc creator\\3.3\\psoc creator\\import\\gnu\\arm\\4.9.
 1547              		.file 3 ".\\Generated_Source\\PSoC5\\cytypes.h"
 1548              		.section	.debug_info,"",%progbits
 1549              	.Ldebug_info0:
 1550 0000 C1040000 		.4byte	0x4c1
 1551 0004 0400     		.2byte	0x4
 1552 0006 00000000 		.4byte	.Ldebug_abbrev0
 1553 000a 04       		.byte	0x4
 1554 000b 01       		.uleb128 0x1
 1555 000c FC010000 		.4byte	.LASF54
 1556 0010 01       		.byte	0x1
 1557 0011 66010000 		.4byte	.LASF55
 1558 0015 3C030000 		.4byte	.LASF56
 1559 0019 00000000 		.4byte	.Ldebug_ranges0+0
 1560 001d 00000000 		.4byte	0
 1561 0021 00000000 		.4byte	.Ldebug_line0
 1562 0025 02       		.uleb128 0x2
 1563 0026 04       		.byte	0x4
 1564 0027 05       		.byte	0x5
 1565 0028 696E7400 		.ascii	"int\000"
 1566 002c 03       		.uleb128 0x3
 1567 002d 07000000 		.4byte	.LASF11
 1568 0031 02       		.byte	0x2
 1569 0032 D4       		.byte	0xd4
 1570 0033 37000000 		.4byte	0x37
 1571 0037 04       		.uleb128 0x4
 1572 0038 04       		.byte	0x4
 1573 0039 07       		.byte	0x7
 1574 003a 59010000 		.4byte	.LASF0
 1575 003e 04       		.uleb128 0x4
 1576 003f 01       		.byte	0x1
 1577 0040 06       		.byte	0x6
 1578 0041 65000000 		.4byte	.LASF1
 1579 0045 04       		.uleb128 0x4
 1580 0046 01       		.byte	0x1
 1581 0047 08       		.byte	0x8
 1582 0048 B7020000 		.4byte	.LASF2
 1583 004c 04       		.uleb128 0x4
 1584 004d 02       		.byte	0x2
 1585 004e 05       		.byte	0x5
 1586 004f E7020000 		.4byte	.LASF3
 1587 0053 04       		.uleb128 0x4
 1588 0054 02       		.byte	0x2
 1589 0055 07       		.byte	0x7
 1590 0056 BE010000 		.4byte	.LASF4
 1591 005a 04       		.uleb128 0x4
 1592 005b 04       		.byte	0x4
 1593 005c 05       		.byte	0x5
 1594 005d 9D000000 		.4byte	.LASF5
ARM GAS  C:\Users\nm\AppData\Local\Temp\ccfftuKh.s 			page 42


 1595 0061 04       		.uleb128 0x4
 1596 0062 04       		.byte	0x4
 1597 0063 07       		.byte	0x7
 1598 0064 8E010000 		.4byte	.LASF6
 1599 0068 04       		.uleb128 0x4
 1600 0069 08       		.byte	0x8
 1601 006a 05       		.byte	0x5
 1602 006b 57000000 		.4byte	.LASF7
 1603 006f 04       		.uleb128 0x4
 1604 0070 08       		.byte	0x8
 1605 0071 07       		.byte	0x7
 1606 0072 22000000 		.4byte	.LASF8
 1607 0076 04       		.uleb128 0x4
 1608 0077 04       		.byte	0x4
 1609 0078 07       		.byte	0x7
 1610 0079 E1010000 		.4byte	.LASF9
 1611 007d 05       		.uleb128 0x5
 1612 007e 04       		.byte	0x4
 1613 007f 04       		.uleb128 0x4
 1614 0080 01       		.byte	0x1
 1615 0081 08       		.byte	0x8
 1616 0082 37030000 		.4byte	.LASF10
 1617 0086 03       		.uleb128 0x3
 1618 0087 BB000000 		.4byte	.LASF12
 1619 008b 03       		.byte	0x3
 1620 008c C2       		.byte	0xc2
 1621 008d 45000000 		.4byte	0x45
 1622 0091 03       		.uleb128 0x3
 1623 0092 00000000 		.4byte	.LASF13
 1624 0096 03       		.byte	0x3
 1625 0097 C3       		.byte	0xc3
 1626 0098 53000000 		.4byte	0x53
 1627 009c 03       		.uleb128 0x3
 1628 009d FE000000 		.4byte	.LASF14
 1629 00a1 03       		.byte	0x3
 1630 00a2 C4       		.byte	0xc4
 1631 00a3 61000000 		.4byte	0x61
 1632 00a7 04       		.uleb128 0x4
 1633 00a8 04       		.byte	0x4
 1634 00a9 04       		.byte	0x4
 1635 00aa 8F020000 		.4byte	.LASF15
 1636 00ae 04       		.uleb128 0x4
 1637 00af 08       		.byte	0x8
 1638 00b0 04       		.byte	0x4
 1639 00b1 CD000000 		.4byte	.LASF16
 1640 00b5 06       		.uleb128 0x6
 1641 00b6 B2020000 		.4byte	.LASF17
 1642 00ba 03       		.byte	0x3
 1643 00bb 6C01     		.2byte	0x16c
 1644 00bd C1000000 		.4byte	0xc1
 1645 00c1 07       		.uleb128 0x7
 1646 00c2 86000000 		.4byte	0x86
 1647 00c6 06       		.uleb128 0x6
 1648 00c7 B5000000 		.4byte	.LASF18
 1649 00cb 03       		.byte	0x3
 1650 00cc 6D01     		.2byte	0x16d
 1651 00ce D2000000 		.4byte	0xd2
ARM GAS  C:\Users\nm\AppData\Local\Temp\ccfftuKh.s 			page 43


 1652 00d2 07       		.uleb128 0x7
 1653 00d3 91000000 		.4byte	0x91
 1654 00d7 08       		.uleb128 0x8
 1655 00d8 71000000 		.4byte	.LASF19
 1656 00dc 01       		.byte	0x1
 1657 00dd 56       		.byte	0x56
 1658 00de 00000000 		.4byte	.LFB0
 1659 00e2 1A000000 		.4byte	.LFE0-.LFB0
 1660 00e6 01       		.uleb128 0x1
 1661 00e7 9C       		.byte	0x9c
 1662 00e8 05010000 		.4byte	0x105
 1663 00ec 09       		.uleb128 0x9
 1664 00ed 7300     		.ascii	"s\000"
 1665 00ef 01       		.byte	0x1
 1666 00f0 56       		.byte	0x56
 1667 00f1 7D000000 		.4byte	0x7d
 1668 00f5 02       		.uleb128 0x2
 1669 00f6 91       		.byte	0x91
 1670 00f7 74       		.sleb128 -12
 1671 00f8 09       		.uleb128 0x9
 1672 00f9 6E00     		.ascii	"n\000"
 1673 00fb 01       		.byte	0x1
 1674 00fc 56       		.byte	0x56
 1675 00fd 2C000000 		.4byte	0x2c
 1676 0101 02       		.uleb128 0x2
 1677 0102 91       		.byte	0x91
 1678 0103 70       		.sleb128 -16
 1679 0104 00       		.byte	0
 1680 0105 08       		.uleb128 0x8
 1681 0106 B0030000 		.4byte	.LASF20
 1682 010a 01       		.byte	0x1
 1683 010b 5D       		.byte	0x5d
 1684 010c 00000000 		.4byte	.LFB1
 1685 0110 1C000000 		.4byte	.LFE1-.LFB1
 1686 0114 01       		.uleb128 0x1
 1687 0115 9C       		.byte	0x9c
 1688 0116 43010000 		.4byte	0x143
 1689 011a 0A       		.uleb128 0xa
 1690 011b 8A020000 		.4byte	.LASF21
 1691 011f 01       		.byte	0x1
 1692 0120 5D       		.byte	0x5d
 1693 0121 7D000000 		.4byte	0x7d
 1694 0125 02       		.uleb128 0x2
 1695 0126 91       		.byte	0x91
 1696 0127 74       		.sleb128 -12
 1697 0128 09       		.uleb128 0x9
 1698 0129 73726300 		.ascii	"src\000"
 1699 012d 01       		.byte	0x1
 1700 012e 5D       		.byte	0x5d
 1701 012f 43010000 		.4byte	0x143
 1702 0133 02       		.uleb128 0x2
 1703 0134 91       		.byte	0x91
 1704 0135 70       		.sleb128 -16
 1705 0136 09       		.uleb128 0x9
 1706 0137 6E00     		.ascii	"n\000"
 1707 0139 01       		.byte	0x1
 1708 013a 5D       		.byte	0x5d
ARM GAS  C:\Users\nm\AppData\Local\Temp\ccfftuKh.s 			page 44


 1709 013b 2C000000 		.4byte	0x2c
 1710 013f 02       		.uleb128 0x2
 1711 0140 91       		.byte	0x91
 1712 0141 6C       		.sleb128 -20
 1713 0142 00       		.byte	0
 1714 0143 0B       		.uleb128 0xb
 1715 0144 04       		.byte	0x4
 1716 0145 49010000 		.4byte	0x149
 1717 0149 0C       		.uleb128 0xc
 1718 014a 08       		.uleb128 0x8
 1719 014b D1010000 		.4byte	.LASF22
 1720 014f 01       		.byte	0x1
 1721 0150 64       		.byte	0x64
 1722 0151 00000000 		.4byte	.LFB2
 1723 0155 1C000000 		.4byte	.LFE2-.LFB2
 1724 0159 01       		.uleb128 0x1
 1725 015a 9C       		.byte	0x9c
 1726 015b 88010000 		.4byte	0x188
 1727 015f 0A       		.uleb128 0xa
 1728 0160 8A020000 		.4byte	.LASF21
 1729 0164 01       		.byte	0x1
 1730 0165 64       		.byte	0x64
 1731 0166 7D000000 		.4byte	0x7d
 1732 016a 02       		.uleb128 0x2
 1733 016b 91       		.byte	0x91
 1734 016c 74       		.sleb128 -12
 1735 016d 09       		.uleb128 0x9
 1736 016e 73726300 		.ascii	"src\000"
 1737 0172 01       		.byte	0x1
 1738 0173 64       		.byte	0x64
 1739 0174 43010000 		.4byte	0x143
 1740 0178 02       		.uleb128 0x2
 1741 0179 91       		.byte	0x91
 1742 017a 70       		.sleb128 -16
 1743 017b 09       		.uleb128 0x9
 1744 017c 6E00     		.ascii	"n\000"
 1745 017e 01       		.byte	0x1
 1746 017f 64       		.byte	0x64
 1747 0180 2C000000 		.4byte	0x2c
 1748 0184 02       		.uleb128 0x2
 1749 0185 91       		.byte	0x91
 1750 0186 6C       		.sleb128 -20
 1751 0187 00       		.byte	0
 1752 0188 0D       		.uleb128 0xd
 1753 0189 0E000000 		.4byte	.LASF23
 1754 018d 01       		.byte	0x1
 1755 018e 84       		.byte	0x84
 1756 018f 00000000 		.4byte	.LFB3
 1757 0193 0C000000 		.4byte	.LFE3-.LFB3
 1758 0197 01       		.uleb128 0x1
 1759 0198 9C       		.byte	0x9c
 1760 0199 AC010000 		.4byte	0x1ac
 1761 019d 0A       		.uleb128 0xa
 1762 019e 93000000 		.4byte	.LASF24
 1763 01a2 01       		.byte	0x1
 1764 01a3 84       		.byte	0x84
 1765 01a4 86000000 		.4byte	0x86
ARM GAS  C:\Users\nm\AppData\Local\Temp\ccfftuKh.s 			page 45


 1766 01a8 02       		.uleb128 0x2
 1767 01a9 91       		.byte	0x91
 1768 01aa 77       		.sleb128 -9
 1769 01ab 00       		.byte	0
 1770 01ac 0D       		.uleb128 0xd
 1771 01ad 39000000 		.4byte	.LASF25
 1772 01b1 01       		.byte	0x1
 1773 01b2 ED       		.byte	0xed
 1774 01b3 00000000 		.4byte	.LFB4
 1775 01b7 74010000 		.4byte	.LFE4-.LFB4
 1776 01bb 01       		.uleb128 0x1
 1777 01bc 9C       		.byte	0x9c
 1778 01bd A5020000 		.4byte	0x2a5
 1779 01c1 0E       		.uleb128 0xe
 1780 01c2 C5020000 		.4byte	.LASF57
 1781 01c6 08       		.byte	0x8
 1782 01c7 01       		.byte	0x1
 1783 01c8 F0       		.byte	0xf0
 1784 01c9 0A020000 		.4byte	0x20a
 1785 01cd 0F       		.uleb128 0xf
 1786 01ce B9010000 		.4byte	.LASF26
 1787 01d2 01       		.byte	0x1
 1788 01d3 F1       		.byte	0xf1
 1789 01d4 91000000 		.4byte	0x91
 1790 01d8 00       		.byte	0
 1791 01d9 0F       		.uleb128 0xf
 1792 01da C1000000 		.4byte	.LASF27
 1793 01de 01       		.byte	0x1
 1794 01df F2       		.byte	0xf2
 1795 01e0 86000000 		.4byte	0x86
 1796 01e4 02       		.byte	0x2
 1797 01e5 0F       		.uleb128 0xf
 1798 01e6 BC030000 		.4byte	.LASF28
 1799 01ea 01       		.byte	0x1
 1800 01eb F3       		.byte	0xf3
 1801 01ec 86000000 		.4byte	0x86
 1802 01f0 03       		.byte	0x3
 1803 01f1 10       		.uleb128 0x10
 1804 01f2 73726300 		.ascii	"src\000"
 1805 01f6 01       		.byte	0x1
 1806 01f7 F4       		.byte	0xf4
 1807 01f8 91000000 		.4byte	0x91
 1808 01fc 04       		.byte	0x4
 1809 01fd 0F       		.uleb128 0xf
 1810 01fe 8A020000 		.4byte	.LASF21
 1811 0202 01       		.byte	0x1
 1812 0203 F5       		.byte	0xf5
 1813 0204 91000000 		.4byte	0x91
 1814 0208 06       		.byte	0x6
 1815 0209 00       		.byte	0
 1816 020a 11       		.uleb128 0x11
 1817 020b F1020000 		.4byte	.LASF29
 1818 020f 01       		.byte	0x1
 1819 0210 F9       		.byte	0xf9
 1820 0211 B5020000 		.4byte	0x2b5
 1821 0215 05       		.uleb128 0x5
 1822 0216 03       		.byte	0x3
ARM GAS  C:\Users\nm\AppData\Local\Temp\ccfftuKh.s 			page 46


 1823 0217 60010000 		.4byte	CH1_ADDR_DATA0.4855
 1824 021b 11       		.uleb128 0x11
 1825 021c 10030000 		.4byte	.LASF30
 1826 0220 01       		.byte	0x1
 1827 0221 FC       		.byte	0xfc
 1828 0222 BA020000 		.4byte	0x2ba
 1829 0226 05       		.uleb128 0x5
 1830 0227 03       		.byte	0x3
 1831 0228 58010000 		.4byte	CH2_ADDR_DATA0.4856
 1832 022c 11       		.uleb128 0x11
 1833 022d A1030000 		.4byte	.LASF31
 1834 0231 01       		.byte	0x1
 1835 0232 FF       		.byte	0xff
 1836 0233 BF020000 		.4byte	0x2bf
 1837 0237 05       		.uleb128 0x5
 1838 0238 03       		.byte	0x3
 1839 0239 50010000 		.4byte	CH5_ADDR_DATA0.4857
 1840 023d 12       		.uleb128 0x12
 1841 023e A6000000 		.4byte	.LASF32
 1842 0242 01       		.byte	0x1
 1843 0243 0201     		.2byte	0x102
 1844 0245 C4020000 		.4byte	0x2c4
 1845 0249 05       		.uleb128 0x5
 1846 024a 03       		.byte	0x3
 1847 024b 48010000 		.4byte	CH6_ADDR_DATA0.4858
 1848 024f 12       		.uleb128 0x12
 1849 0250 A8010000 		.4byte	.LASF33
 1850 0254 01       		.byte	0x1
 1851 0255 0501     		.2byte	0x105
 1852 0257 D9020000 		.4byte	0x2d9
 1853 025b 05       		.uleb128 0x5
 1854 025c 03       		.byte	0x3
 1855 025d 40010000 		.4byte	DMA_TD_START_CMD.4859
 1856 0261 12       		.uleb128 0x12
 1857 0262 D8030000 		.4byte	.LASF34
 1858 0266 01       		.byte	0x1
 1859 0267 0701     		.2byte	0x107
 1860 0269 9C000000 		.4byte	0x9c
 1861 026d 05       		.uleb128 0x5
 1862 026e 03       		.byte	0x3
 1863 026f 00000000 		.4byte	DMA_ZERO_VAL.4860
 1864 0273 12       		.uleb128 0x12
 1865 0274 7B000000 		.4byte	.LASF35
 1866 0278 01       		.byte	0x1
 1867 0279 0F01     		.2byte	0x10f
 1868 027b EE020000 		.4byte	0x2ee
 1869 027f 05       		.uleb128 0x5
 1870 0280 03       		.byte	0x3
 1871 0281 00000000 		.4byte	CFG_TD_LIST0.4861
 1872 0285 12       		.uleb128 0x12
 1873 0286 F1000000 		.4byte	.LASF36
 1874 028a 01       		.byte	0x1
 1875 028b 4001     		.2byte	0x140
 1876 028d 03030000 		.4byte	0x303
 1877 0291 05       		.uleb128 0x5
 1878 0292 03       		.byte	0x3
 1879 0293 40000000 		.4byte	CFG_TD_ADDR0.4862
ARM GAS  C:\Users\nm\AppData\Local\Temp\ccfftuKh.s 			page 47


 1880 0297 13       		.uleb128 0x13
 1881 0298 6900     		.ascii	"i\000"
 1882 029a 01       		.byte	0x1
 1883 029b 6C01     		.2byte	0x16c
 1884 029d 9C000000 		.4byte	0x9c
 1885 02a1 02       		.uleb128 0x2
 1886 02a2 91       		.byte	0x91
 1887 02a3 74       		.sleb128 -12
 1888 02a4 00       		.byte	0
 1889 02a5 14       		.uleb128 0x14
 1890 02a6 86000000 		.4byte	0x86
 1891 02aa B5020000 		.4byte	0x2b5
 1892 02ae 15       		.uleb128 0x15
 1893 02af 76000000 		.4byte	0x76
 1894 02b3 07       		.byte	0x7
 1895 02b4 00       		.byte	0
 1896 02b5 16       		.uleb128 0x16
 1897 02b6 A5020000 		.4byte	0x2a5
 1898 02ba 16       		.uleb128 0x16
 1899 02bb A5020000 		.4byte	0x2a5
 1900 02bf 16       		.uleb128 0x16
 1901 02c0 A5020000 		.4byte	0x2a5
 1902 02c4 16       		.uleb128 0x16
 1903 02c5 A5020000 		.4byte	0x2a5
 1904 02c9 14       		.uleb128 0x14
 1905 02ca 86000000 		.4byte	0x86
 1906 02ce D9020000 		.4byte	0x2d9
 1907 02d2 15       		.uleb128 0x15
 1908 02d3 76000000 		.4byte	0x76
 1909 02d7 04       		.byte	0x4
 1910 02d8 00       		.byte	0
 1911 02d9 16       		.uleb128 0x16
 1912 02da C9020000 		.4byte	0x2c9
 1913 02de 14       		.uleb128 0x14
 1914 02df C1010000 		.4byte	0x1c1
 1915 02e3 EE020000 		.4byte	0x2ee
 1916 02e7 15       		.uleb128 0x15
 1917 02e8 76000000 		.4byte	0x76
 1918 02ec 27       		.byte	0x27
 1919 02ed 00       		.byte	0
 1920 02ee 16       		.uleb128 0x16
 1921 02ef DE020000 		.4byte	0x2de
 1922 02f3 14       		.uleb128 0x14
 1923 02f4 43010000 		.4byte	0x143
 1924 02f8 03030000 		.4byte	0x303
 1925 02fc 15       		.uleb128 0x15
 1926 02fd 76000000 		.4byte	0x76
 1927 0301 27       		.byte	0x27
 1928 0302 00       		.byte	0
 1929 0303 16       		.uleb128 0x16
 1930 0304 F3020000 		.4byte	0x2f3
 1931 0308 17       		.uleb128 0x17
 1932 0309 88000000 		.4byte	.LASF37
 1933 030d 01       		.byte	0x1
 1934 030e A901     		.2byte	0x1a9
 1935 0310 00000000 		.4byte	.LFB5
 1936 0314 54010000 		.4byte	.LFE5-.LFB5
ARM GAS  C:\Users\nm\AppData\Local\Temp\ccfftuKh.s 			page 48


 1937 0318 01       		.uleb128 0x1
 1938 0319 9C       		.byte	0x9c
 1939 031a 3D030000 		.4byte	0x33d
 1940 031e 12       		.uleb128 0x12
 1941 031f A0010000 		.4byte	.LASF38
 1942 0323 01       		.byte	0x1
 1943 0324 AB01     		.2byte	0x1ab
 1944 0326 9C000000 		.4byte	0x9c
 1945 032a 02       		.uleb128 0x2
 1946 032b 91       		.byte	0x91
 1947 032c 74       		.sleb128 -12
 1948 032d 12       		.uleb128 0x12
 1949 032e 00030000 		.4byte	.LASF39
 1950 0332 01       		.byte	0x1
 1951 0333 AC01     		.2byte	0x1ac
 1952 0335 86000000 		.4byte	0x86
 1953 0339 02       		.uleb128 0x2
 1954 033a 91       		.byte	0x91
 1955 033b 73       		.sleb128 -13
 1956 033c 00       		.byte	0
 1957 033d 18       		.uleb128 0x18
 1958 033e 46000000 		.4byte	.LASF40
 1959 0342 01       		.byte	0x1
 1960 0343 F201     		.2byte	0x1f2
 1961 0345 00000000 		.4byte	.LFB6
 1962 0349 78000000 		.4byte	.LFE6-.LFB6
 1963 034d 01       		.uleb128 0x1
 1964 034e 9C       		.byte	0x9c
 1965 034f 63030000 		.4byte	0x363
 1966 0353 12       		.uleb128 0x12
 1967 0354 EA010000 		.4byte	.LASF41
 1968 0358 01       		.byte	0x1
 1969 0359 F401     		.2byte	0x1f4
 1970 035b 86000000 		.4byte	0x86
 1971 035f 02       		.uleb128 0x2
 1972 0360 91       		.byte	0x91
 1973 0361 77       		.sleb128 -9
 1974 0362 00       		.byte	0
 1975 0363 19       		.uleb128 0x19
 1976 0364 83030000 		.4byte	.LASF44
 1977 0368 01       		.byte	0x1
 1978 0369 1102     		.2byte	0x211
 1979 036b 00000000 		.4byte	.LFB7
 1980 036f 3C000000 		.4byte	.LFE7-.LFB7
 1981 0373 01       		.uleb128 0x1
 1982 0374 9C       		.byte	0x9c
 1983 0375 98030000 		.4byte	0x398
 1984 0379 1A       		.uleb128 0x1a
 1985 037a 99030000 		.4byte	.LASF42
 1986 037e 01       		.byte	0x1
 1987 037f 1102     		.2byte	0x211
 1988 0381 86000000 		.4byte	0x86
 1989 0385 02       		.uleb128 0x2
 1990 0386 91       		.byte	0x91
 1991 0387 6F       		.sleb128 -17
 1992 0388 12       		.uleb128 0x12
 1993 0389 1D010000 		.4byte	.LASF43
ARM GAS  C:\Users\nm\AppData\Local\Temp\ccfftuKh.s 			page 49


 1994 038d 01       		.byte	0x1
 1995 038e 1302     		.2byte	0x213
 1996 0390 86000000 		.4byte	0x86
 1997 0394 02       		.uleb128 0x2
 1998 0395 91       		.byte	0x91
 1999 0396 77       		.sleb128 -9
 2000 0397 00       		.byte	0
 2001 0398 19       		.uleb128 0x19
 2002 0399 43010000 		.4byte	.LASF45
 2003 039d 01       		.byte	0x1
 2004 039e 3D02     		.2byte	0x23d
 2005 03a0 00000000 		.4byte	.LFB8
 2006 03a4 6C000000 		.4byte	.LFE8-.LFB8
 2007 03a8 01       		.uleb128 0x1
 2008 03a9 9C       		.byte	0x9c
 2009 03aa BE030000 		.4byte	0x3be
 2010 03ae 1A       		.uleb128 0x1a
 2011 03af 08030000 		.4byte	.LASF46
 2012 03b3 01       		.byte	0x1
 2013 03b4 3D02     		.2byte	0x23d
 2014 03b6 86000000 		.4byte	0x86
 2015 03ba 02       		.uleb128 0x2
 2016 03bb 91       		.byte	0x91
 2017 03bc 77       		.sleb128 -9
 2018 03bd 00       		.byte	0
 2019 03be 19       		.uleb128 0x19
 2020 03bf 1F030000 		.4byte	.LASF47
 2021 03c3 01       		.byte	0x1
 2022 03c4 5602     		.2byte	0x256
 2023 03c6 00000000 		.4byte	.LFB9
 2024 03ca 74000000 		.4byte	.LFE9-.LFB9
 2025 03ce 01       		.uleb128 0x1
 2026 03cf 9C       		.byte	0x9c
 2027 03d0 E4030000 		.4byte	0x3e4
 2028 03d4 1A       		.uleb128 0x1a
 2029 03d5 08030000 		.4byte	.LASF46
 2030 03d9 01       		.byte	0x1
 2031 03da 5602     		.2byte	0x256
 2032 03dc 86000000 		.4byte	0x86
 2033 03e0 02       		.uleb128 0x2
 2034 03e1 91       		.byte	0x91
 2035 03e2 77       		.sleb128 -9
 2036 03e3 00       		.byte	0
 2037 03e4 19       		.uleb128 0x19
 2038 03e5 C2030000 		.4byte	.LASF48
 2039 03e9 01       		.byte	0x1
 2040 03ea 7E02     		.2byte	0x27e
 2041 03ec 00000000 		.4byte	.LFB10
 2042 03f0 6C000000 		.4byte	.LFE10-.LFB10
 2043 03f4 01       		.uleb128 0x1
 2044 03f5 9C       		.byte	0x9c
 2045 03f6 0A040000 		.4byte	0x40a
 2046 03fa 1A       		.uleb128 0x1a
 2047 03fb 08030000 		.4byte	.LASF46
 2048 03ff 01       		.byte	0x1
 2049 0400 7E02     		.2byte	0x27e
 2050 0402 86000000 		.4byte	0x86
ARM GAS  C:\Users\nm\AppData\Local\Temp\ccfftuKh.s 			page 50


 2051 0406 02       		.uleb128 0x2
 2052 0407 91       		.byte	0x91
 2053 0408 77       		.sleb128 -9
 2054 0409 00       		.byte	0
 2055 040a 19       		.uleb128 0x19
 2056 040b 05010000 		.4byte	.LASF49
 2057 040f 01       		.byte	0x1
 2058 0410 9702     		.2byte	0x297
 2059 0412 00000000 		.4byte	.LFB11
 2060 0416 74000000 		.4byte	.LFE11-.LFB11
 2061 041a 01       		.uleb128 0x1
 2062 041b 9C       		.byte	0x9c
 2063 041c 30040000 		.4byte	0x430
 2064 0420 1A       		.uleb128 0x1a
 2065 0421 08030000 		.4byte	.LASF46
 2066 0425 01       		.byte	0x1
 2067 0426 9702     		.2byte	0x297
 2068 0428 86000000 		.4byte	0x86
 2069 042c 02       		.uleb128 0x2
 2070 042d 91       		.byte	0x91
 2071 042e 77       		.sleb128 -9
 2072 042f 00       		.byte	0
 2073 0430 1B       		.uleb128 0x1b
 2074 0431 E5030000 		.4byte	.LASF58
 2075 0435 01       		.byte	0x1
 2076 0436 B502     		.2byte	0x2b5
 2077 0438 00000000 		.4byte	.LFB12
 2078 043c E4000000 		.4byte	.LFE12-.LFB12
 2079 0440 01       		.uleb128 0x1
 2080 0441 9C       		.byte	0x9c
 2081 0442 14       		.uleb128 0x14
 2082 0443 52040000 		.4byte	0x452
 2083 0447 52040000 		.4byte	0x452
 2084 044b 15       		.uleb128 0x15
 2085 044c 76000000 		.4byte	0x76
 2086 0450 05       		.byte	0x5
 2087 0451 00       		.byte	0
 2088 0452 0B       		.uleb128 0xb
 2089 0453 04       		.byte	0x4
 2090 0454 86000000 		.4byte	0x86
 2091 0458 1C       		.uleb128 0x1c
 2092 0459 26010000 		.4byte	.LASF50
 2093 045d 01       		.byte	0x1
 2094 045e 2202     		.2byte	0x222
 2095 0460 6A040000 		.4byte	0x46a
 2096 0464 05       		.uleb128 0x5
 2097 0465 03       		.byte	0x3
 2098 0466 00000000 		.4byte	AMux_CYAMUXSIDE_A__addrTable
 2099 046a 16       		.uleb128 0x16
 2100 046b 42040000 		.4byte	0x442
 2101 046f 14       		.uleb128 0x14
 2102 0470 86000000 		.4byte	0x86
 2103 0474 7F040000 		.4byte	0x47f
 2104 0478 15       		.uleb128 0x15
 2105 0479 76000000 		.4byte	0x76
 2106 047d 05       		.byte	0x5
 2107 047e 00       		.byte	0
ARM GAS  C:\Users\nm\AppData\Local\Temp\ccfftuKh.s 			page 51


 2108 047f 1C       		.uleb128 0x1c
 2109 0480 D4000000 		.4byte	.LASF51
 2110 0484 01       		.byte	0x1
 2111 0485 2A02     		.2byte	0x22a
 2112 0487 91040000 		.4byte	0x491
 2113 048b 05       		.uleb128 0x5
 2114 048c 03       		.byte	0x3
 2115 048d 00000000 		.4byte	AMux_CYAMUXSIDE_A__maskTable
 2116 0491 16       		.uleb128 0x16
 2117 0492 6F040000 		.4byte	0x46f
 2118 0496 1C       		.uleb128 0x1c
 2119 0497 CA020000 		.4byte	.LASF52
 2120 049b 01       		.byte	0x1
 2121 049c 6302     		.2byte	0x263
 2122 049e A8040000 		.4byte	0x4a8
 2123 04a2 05       		.uleb128 0x5
 2124 04a3 03       		.byte	0x3
 2125 04a4 00000000 		.4byte	AMux_CYAMUXSIDE_B__addrTable
 2126 04a8 16       		.uleb128 0x16
 2127 04a9 42040000 		.4byte	0x442
 2128 04ad 1C       		.uleb128 0x1c
 2129 04ae 95020000 		.4byte	.LASF53
 2130 04b2 01       		.byte	0x1
 2131 04b3 6B02     		.2byte	0x26b
 2132 04b5 BF040000 		.4byte	0x4bf
 2133 04b9 05       		.uleb128 0x5
 2134 04ba 03       		.byte	0x3
 2135 04bb 00000000 		.4byte	AMux_CYAMUXSIDE_B__maskTable
 2136 04bf 16       		.uleb128 0x16
 2137 04c0 6F040000 		.4byte	0x46f
 2138 04c4 00       		.byte	0
 2139              		.section	.debug_abbrev,"",%progbits
 2140              	.Ldebug_abbrev0:
 2141 0000 01       		.uleb128 0x1
 2142 0001 11       		.uleb128 0x11
 2143 0002 01       		.byte	0x1
 2144 0003 25       		.uleb128 0x25
 2145 0004 0E       		.uleb128 0xe
 2146 0005 13       		.uleb128 0x13
 2147 0006 0B       		.uleb128 0xb
 2148 0007 03       		.uleb128 0x3
 2149 0008 0E       		.uleb128 0xe
 2150 0009 1B       		.uleb128 0x1b
 2151 000a 0E       		.uleb128 0xe
 2152 000b 55       		.uleb128 0x55
 2153 000c 17       		.uleb128 0x17
 2154 000d 11       		.uleb128 0x11
 2155 000e 01       		.uleb128 0x1
 2156 000f 10       		.uleb128 0x10
 2157 0010 17       		.uleb128 0x17
 2158 0011 00       		.byte	0
 2159 0012 00       		.byte	0
 2160 0013 02       		.uleb128 0x2
 2161 0014 24       		.uleb128 0x24
 2162 0015 00       		.byte	0
 2163 0016 0B       		.uleb128 0xb
 2164 0017 0B       		.uleb128 0xb
ARM GAS  C:\Users\nm\AppData\Local\Temp\ccfftuKh.s 			page 52


 2165 0018 3E       		.uleb128 0x3e
 2166 0019 0B       		.uleb128 0xb
 2167 001a 03       		.uleb128 0x3
 2168 001b 08       		.uleb128 0x8
 2169 001c 00       		.byte	0
 2170 001d 00       		.byte	0
 2171 001e 03       		.uleb128 0x3
 2172 001f 16       		.uleb128 0x16
 2173 0020 00       		.byte	0
 2174 0021 03       		.uleb128 0x3
 2175 0022 0E       		.uleb128 0xe
 2176 0023 3A       		.uleb128 0x3a
 2177 0024 0B       		.uleb128 0xb
 2178 0025 3B       		.uleb128 0x3b
 2179 0026 0B       		.uleb128 0xb
 2180 0027 49       		.uleb128 0x49
 2181 0028 13       		.uleb128 0x13
 2182 0029 00       		.byte	0
 2183 002a 00       		.byte	0
 2184 002b 04       		.uleb128 0x4
 2185 002c 24       		.uleb128 0x24
 2186 002d 00       		.byte	0
 2187 002e 0B       		.uleb128 0xb
 2188 002f 0B       		.uleb128 0xb
 2189 0030 3E       		.uleb128 0x3e
 2190 0031 0B       		.uleb128 0xb
 2191 0032 03       		.uleb128 0x3
 2192 0033 0E       		.uleb128 0xe
 2193 0034 00       		.byte	0
 2194 0035 00       		.byte	0
 2195 0036 05       		.uleb128 0x5
 2196 0037 0F       		.uleb128 0xf
 2197 0038 00       		.byte	0
 2198 0039 0B       		.uleb128 0xb
 2199 003a 0B       		.uleb128 0xb
 2200 003b 00       		.byte	0
 2201 003c 00       		.byte	0
 2202 003d 06       		.uleb128 0x6
 2203 003e 16       		.uleb128 0x16
 2204 003f 00       		.byte	0
 2205 0040 03       		.uleb128 0x3
 2206 0041 0E       		.uleb128 0xe
 2207 0042 3A       		.uleb128 0x3a
 2208 0043 0B       		.uleb128 0xb
 2209 0044 3B       		.uleb128 0x3b
 2210 0045 05       		.uleb128 0x5
 2211 0046 49       		.uleb128 0x49
 2212 0047 13       		.uleb128 0x13
 2213 0048 00       		.byte	0
 2214 0049 00       		.byte	0
 2215 004a 07       		.uleb128 0x7
 2216 004b 35       		.uleb128 0x35
 2217 004c 00       		.byte	0
 2218 004d 49       		.uleb128 0x49
 2219 004e 13       		.uleb128 0x13
 2220 004f 00       		.byte	0
 2221 0050 00       		.byte	0
ARM GAS  C:\Users\nm\AppData\Local\Temp\ccfftuKh.s 			page 53


 2222 0051 08       		.uleb128 0x8
 2223 0052 2E       		.uleb128 0x2e
 2224 0053 01       		.byte	0x1
 2225 0054 03       		.uleb128 0x3
 2226 0055 0E       		.uleb128 0xe
 2227 0056 3A       		.uleb128 0x3a
 2228 0057 0B       		.uleb128 0xb
 2229 0058 3B       		.uleb128 0x3b
 2230 0059 0B       		.uleb128 0xb
 2231 005a 27       		.uleb128 0x27
 2232 005b 19       		.uleb128 0x19
 2233 005c 11       		.uleb128 0x11
 2234 005d 01       		.uleb128 0x1
 2235 005e 12       		.uleb128 0x12
 2236 005f 06       		.uleb128 0x6
 2237 0060 40       		.uleb128 0x40
 2238 0061 18       		.uleb128 0x18
 2239 0062 9642     		.uleb128 0x2116
 2240 0064 19       		.uleb128 0x19
 2241 0065 01       		.uleb128 0x1
 2242 0066 13       		.uleb128 0x13
 2243 0067 00       		.byte	0
 2244 0068 00       		.byte	0
 2245 0069 09       		.uleb128 0x9
 2246 006a 05       		.uleb128 0x5
 2247 006b 00       		.byte	0
 2248 006c 03       		.uleb128 0x3
 2249 006d 08       		.uleb128 0x8
 2250 006e 3A       		.uleb128 0x3a
 2251 006f 0B       		.uleb128 0xb
 2252 0070 3B       		.uleb128 0x3b
 2253 0071 0B       		.uleb128 0xb
 2254 0072 49       		.uleb128 0x49
 2255 0073 13       		.uleb128 0x13
 2256 0074 02       		.uleb128 0x2
 2257 0075 18       		.uleb128 0x18
 2258 0076 00       		.byte	0
 2259 0077 00       		.byte	0
 2260 0078 0A       		.uleb128 0xa
 2261 0079 05       		.uleb128 0x5
 2262 007a 00       		.byte	0
 2263 007b 03       		.uleb128 0x3
 2264 007c 0E       		.uleb128 0xe
 2265 007d 3A       		.uleb128 0x3a
 2266 007e 0B       		.uleb128 0xb
 2267 007f 3B       		.uleb128 0x3b
 2268 0080 0B       		.uleb128 0xb
 2269 0081 49       		.uleb128 0x49
 2270 0082 13       		.uleb128 0x13
 2271 0083 02       		.uleb128 0x2
 2272 0084 18       		.uleb128 0x18
 2273 0085 00       		.byte	0
 2274 0086 00       		.byte	0
 2275 0087 0B       		.uleb128 0xb
 2276 0088 0F       		.uleb128 0xf
 2277 0089 00       		.byte	0
 2278 008a 0B       		.uleb128 0xb
ARM GAS  C:\Users\nm\AppData\Local\Temp\ccfftuKh.s 			page 54


 2279 008b 0B       		.uleb128 0xb
 2280 008c 49       		.uleb128 0x49
 2281 008d 13       		.uleb128 0x13
 2282 008e 00       		.byte	0
 2283 008f 00       		.byte	0
 2284 0090 0C       		.uleb128 0xc
 2285 0091 26       		.uleb128 0x26
 2286 0092 00       		.byte	0
 2287 0093 00       		.byte	0
 2288 0094 00       		.byte	0
 2289 0095 0D       		.uleb128 0xd
 2290 0096 2E       		.uleb128 0x2e
 2291 0097 01       		.byte	0x1
 2292 0098 03       		.uleb128 0x3
 2293 0099 0E       		.uleb128 0xe
 2294 009a 3A       		.uleb128 0x3a
 2295 009b 0B       		.uleb128 0xb
 2296 009c 3B       		.uleb128 0x3b
 2297 009d 0B       		.uleb128 0xb
 2298 009e 27       		.uleb128 0x27
 2299 009f 19       		.uleb128 0x19
 2300 00a0 11       		.uleb128 0x11
 2301 00a1 01       		.uleb128 0x1
 2302 00a2 12       		.uleb128 0x12
 2303 00a3 06       		.uleb128 0x6
 2304 00a4 40       		.uleb128 0x40
 2305 00a5 18       		.uleb128 0x18
 2306 00a6 9742     		.uleb128 0x2117
 2307 00a8 19       		.uleb128 0x19
 2308 00a9 01       		.uleb128 0x1
 2309 00aa 13       		.uleb128 0x13
 2310 00ab 00       		.byte	0
 2311 00ac 00       		.byte	0
 2312 00ad 0E       		.uleb128 0xe
 2313 00ae 13       		.uleb128 0x13
 2314 00af 01       		.byte	0x1
 2315 00b0 03       		.uleb128 0x3
 2316 00b1 0E       		.uleb128 0xe
 2317 00b2 0B       		.uleb128 0xb
 2318 00b3 0B       		.uleb128 0xb
 2319 00b4 3A       		.uleb128 0x3a
 2320 00b5 0B       		.uleb128 0xb
 2321 00b6 3B       		.uleb128 0x3b
 2322 00b7 0B       		.uleb128 0xb
 2323 00b8 01       		.uleb128 0x1
 2324 00b9 13       		.uleb128 0x13
 2325 00ba 00       		.byte	0
 2326 00bb 00       		.byte	0
 2327 00bc 0F       		.uleb128 0xf
 2328 00bd 0D       		.uleb128 0xd
 2329 00be 00       		.byte	0
 2330 00bf 03       		.uleb128 0x3
 2331 00c0 0E       		.uleb128 0xe
 2332 00c1 3A       		.uleb128 0x3a
 2333 00c2 0B       		.uleb128 0xb
 2334 00c3 3B       		.uleb128 0x3b
 2335 00c4 0B       		.uleb128 0xb
ARM GAS  C:\Users\nm\AppData\Local\Temp\ccfftuKh.s 			page 55


 2336 00c5 49       		.uleb128 0x49
 2337 00c6 13       		.uleb128 0x13
 2338 00c7 38       		.uleb128 0x38
 2339 00c8 0B       		.uleb128 0xb
 2340 00c9 00       		.byte	0
 2341 00ca 00       		.byte	0
 2342 00cb 10       		.uleb128 0x10
 2343 00cc 0D       		.uleb128 0xd
 2344 00cd 00       		.byte	0
 2345 00ce 03       		.uleb128 0x3
 2346 00cf 08       		.uleb128 0x8
 2347 00d0 3A       		.uleb128 0x3a
 2348 00d1 0B       		.uleb128 0xb
 2349 00d2 3B       		.uleb128 0x3b
 2350 00d3 0B       		.uleb128 0xb
 2351 00d4 49       		.uleb128 0x49
 2352 00d5 13       		.uleb128 0x13
 2353 00d6 38       		.uleb128 0x38
 2354 00d7 0B       		.uleb128 0xb
 2355 00d8 00       		.byte	0
 2356 00d9 00       		.byte	0
 2357 00da 11       		.uleb128 0x11
 2358 00db 34       		.uleb128 0x34
 2359 00dc 00       		.byte	0
 2360 00dd 03       		.uleb128 0x3
 2361 00de 0E       		.uleb128 0xe
 2362 00df 3A       		.uleb128 0x3a
 2363 00e0 0B       		.uleb128 0xb
 2364 00e1 3B       		.uleb128 0x3b
 2365 00e2 0B       		.uleb128 0xb
 2366 00e3 49       		.uleb128 0x49
 2367 00e4 13       		.uleb128 0x13
 2368 00e5 02       		.uleb128 0x2
 2369 00e6 18       		.uleb128 0x18
 2370 00e7 00       		.byte	0
 2371 00e8 00       		.byte	0
 2372 00e9 12       		.uleb128 0x12
 2373 00ea 34       		.uleb128 0x34
 2374 00eb 00       		.byte	0
 2375 00ec 03       		.uleb128 0x3
 2376 00ed 0E       		.uleb128 0xe
 2377 00ee 3A       		.uleb128 0x3a
 2378 00ef 0B       		.uleb128 0xb
 2379 00f0 3B       		.uleb128 0x3b
 2380 00f1 05       		.uleb128 0x5
 2381 00f2 49       		.uleb128 0x49
 2382 00f3 13       		.uleb128 0x13
 2383 00f4 02       		.uleb128 0x2
 2384 00f5 18       		.uleb128 0x18
 2385 00f6 00       		.byte	0
 2386 00f7 00       		.byte	0
 2387 00f8 13       		.uleb128 0x13
 2388 00f9 34       		.uleb128 0x34
 2389 00fa 00       		.byte	0
 2390 00fb 03       		.uleb128 0x3
 2391 00fc 08       		.uleb128 0x8
 2392 00fd 3A       		.uleb128 0x3a
ARM GAS  C:\Users\nm\AppData\Local\Temp\ccfftuKh.s 			page 56


 2393 00fe 0B       		.uleb128 0xb
 2394 00ff 3B       		.uleb128 0x3b
 2395 0100 05       		.uleb128 0x5
 2396 0101 49       		.uleb128 0x49
 2397 0102 13       		.uleb128 0x13
 2398 0103 02       		.uleb128 0x2
 2399 0104 18       		.uleb128 0x18
 2400 0105 00       		.byte	0
 2401 0106 00       		.byte	0
 2402 0107 14       		.uleb128 0x14
 2403 0108 01       		.uleb128 0x1
 2404 0109 01       		.byte	0x1
 2405 010a 49       		.uleb128 0x49
 2406 010b 13       		.uleb128 0x13
 2407 010c 01       		.uleb128 0x1
 2408 010d 13       		.uleb128 0x13
 2409 010e 00       		.byte	0
 2410 010f 00       		.byte	0
 2411 0110 15       		.uleb128 0x15
 2412 0111 21       		.uleb128 0x21
 2413 0112 00       		.byte	0
 2414 0113 49       		.uleb128 0x49
 2415 0114 13       		.uleb128 0x13
 2416 0115 2F       		.uleb128 0x2f
 2417 0116 0B       		.uleb128 0xb
 2418 0117 00       		.byte	0
 2419 0118 00       		.byte	0
 2420 0119 16       		.uleb128 0x16
 2421 011a 26       		.uleb128 0x26
 2422 011b 00       		.byte	0
 2423 011c 49       		.uleb128 0x49
 2424 011d 13       		.uleb128 0x13
 2425 011e 00       		.byte	0
 2426 011f 00       		.byte	0
 2427 0120 17       		.uleb128 0x17
 2428 0121 2E       		.uleb128 0x2e
 2429 0122 01       		.byte	0x1
 2430 0123 03       		.uleb128 0x3
 2431 0124 0E       		.uleb128 0xe
 2432 0125 3A       		.uleb128 0x3a
 2433 0126 0B       		.uleb128 0xb
 2434 0127 3B       		.uleb128 0x3b
 2435 0128 05       		.uleb128 0x5
 2436 0129 27       		.uleb128 0x27
 2437 012a 19       		.uleb128 0x19
 2438 012b 11       		.uleb128 0x11
 2439 012c 01       		.uleb128 0x1
 2440 012d 12       		.uleb128 0x12
 2441 012e 06       		.uleb128 0x6
 2442 012f 40       		.uleb128 0x40
 2443 0130 18       		.uleb128 0x18
 2444 0131 9642     		.uleb128 0x2116
 2445 0133 19       		.uleb128 0x19
 2446 0134 01       		.uleb128 0x1
 2447 0135 13       		.uleb128 0x13
 2448 0136 00       		.byte	0
 2449 0137 00       		.byte	0
ARM GAS  C:\Users\nm\AppData\Local\Temp\ccfftuKh.s 			page 57


 2450 0138 18       		.uleb128 0x18
 2451 0139 2E       		.uleb128 0x2e
 2452 013a 01       		.byte	0x1
 2453 013b 03       		.uleb128 0x3
 2454 013c 0E       		.uleb128 0xe
 2455 013d 3A       		.uleb128 0x3a
 2456 013e 0B       		.uleb128 0xb
 2457 013f 3B       		.uleb128 0x3b
 2458 0140 05       		.uleb128 0x5
 2459 0141 27       		.uleb128 0x27
 2460 0142 19       		.uleb128 0x19
 2461 0143 11       		.uleb128 0x11
 2462 0144 01       		.uleb128 0x1
 2463 0145 12       		.uleb128 0x12
 2464 0146 06       		.uleb128 0x6
 2465 0147 40       		.uleb128 0x40
 2466 0148 18       		.uleb128 0x18
 2467 0149 9742     		.uleb128 0x2117
 2468 014b 19       		.uleb128 0x19
 2469 014c 01       		.uleb128 0x1
 2470 014d 13       		.uleb128 0x13
 2471 014e 00       		.byte	0
 2472 014f 00       		.byte	0
 2473 0150 19       		.uleb128 0x19
 2474 0151 2E       		.uleb128 0x2e
 2475 0152 01       		.byte	0x1
 2476 0153 3F       		.uleb128 0x3f
 2477 0154 19       		.uleb128 0x19
 2478 0155 03       		.uleb128 0x3
 2479 0156 0E       		.uleb128 0xe
 2480 0157 3A       		.uleb128 0x3a
 2481 0158 0B       		.uleb128 0xb
 2482 0159 3B       		.uleb128 0x3b
 2483 015a 05       		.uleb128 0x5
 2484 015b 27       		.uleb128 0x27
 2485 015c 19       		.uleb128 0x19
 2486 015d 11       		.uleb128 0x11
 2487 015e 01       		.uleb128 0x1
 2488 015f 12       		.uleb128 0x12
 2489 0160 06       		.uleb128 0x6
 2490 0161 40       		.uleb128 0x40
 2491 0162 18       		.uleb128 0x18
 2492 0163 9742     		.uleb128 0x2117
 2493 0165 19       		.uleb128 0x19
 2494 0166 01       		.uleb128 0x1
 2495 0167 13       		.uleb128 0x13
 2496 0168 00       		.byte	0
 2497 0169 00       		.byte	0
 2498 016a 1A       		.uleb128 0x1a
 2499 016b 05       		.uleb128 0x5
 2500 016c 00       		.byte	0
 2501 016d 03       		.uleb128 0x3
 2502 016e 0E       		.uleb128 0xe
 2503 016f 3A       		.uleb128 0x3a
 2504 0170 0B       		.uleb128 0xb
 2505 0171 3B       		.uleb128 0x3b
 2506 0172 05       		.uleb128 0x5
ARM GAS  C:\Users\nm\AppData\Local\Temp\ccfftuKh.s 			page 58


 2507 0173 49       		.uleb128 0x49
 2508 0174 13       		.uleb128 0x13
 2509 0175 02       		.uleb128 0x2
 2510 0176 18       		.uleb128 0x18
 2511 0177 00       		.byte	0
 2512 0178 00       		.byte	0
 2513 0179 1B       		.uleb128 0x1b
 2514 017a 2E       		.uleb128 0x2e
 2515 017b 00       		.byte	0
 2516 017c 3F       		.uleb128 0x3f
 2517 017d 19       		.uleb128 0x19
 2518 017e 03       		.uleb128 0x3
 2519 017f 0E       		.uleb128 0xe
 2520 0180 3A       		.uleb128 0x3a
 2521 0181 0B       		.uleb128 0xb
 2522 0182 3B       		.uleb128 0x3b
 2523 0183 05       		.uleb128 0x5
 2524 0184 27       		.uleb128 0x27
 2525 0185 19       		.uleb128 0x19
 2526 0186 11       		.uleb128 0x11
 2527 0187 01       		.uleb128 0x1
 2528 0188 12       		.uleb128 0x12
 2529 0189 06       		.uleb128 0x6
 2530 018a 40       		.uleb128 0x40
 2531 018b 18       		.uleb128 0x18
 2532 018c 9642     		.uleb128 0x2116
 2533 018e 19       		.uleb128 0x19
 2534 018f 00       		.byte	0
 2535 0190 00       		.byte	0
 2536 0191 1C       		.uleb128 0x1c
 2537 0192 34       		.uleb128 0x34
 2538 0193 00       		.byte	0
 2539 0194 03       		.uleb128 0x3
 2540 0195 0E       		.uleb128 0xe
 2541 0196 3A       		.uleb128 0x3a
 2542 0197 0B       		.uleb128 0xb
 2543 0198 3B       		.uleb128 0x3b
 2544 0199 05       		.uleb128 0x5
 2545 019a 49       		.uleb128 0x49
 2546 019b 13       		.uleb128 0x13
 2547 019c 3F       		.uleb128 0x3f
 2548 019d 19       		.uleb128 0x19
 2549 019e 02       		.uleb128 0x2
 2550 019f 18       		.uleb128 0x18
 2551 01a0 00       		.byte	0
 2552 01a1 00       		.byte	0
 2553 01a2 00       		.byte	0
 2554              		.section	.debug_aranges,"",%progbits
 2555 0000 7C000000 		.4byte	0x7c
 2556 0004 0200     		.2byte	0x2
 2557 0006 00000000 		.4byte	.Ldebug_info0
 2558 000a 04       		.byte	0x4
 2559 000b 00       		.byte	0
 2560 000c 0000     		.2byte	0
 2561 000e 0000     		.2byte	0
 2562 0010 00000000 		.4byte	.LFB0
 2563 0014 1A000000 		.4byte	.LFE0-.LFB0
ARM GAS  C:\Users\nm\AppData\Local\Temp\ccfftuKh.s 			page 59


 2564 0018 00000000 		.4byte	.LFB1
 2565 001c 1C000000 		.4byte	.LFE1-.LFB1
 2566 0020 00000000 		.4byte	.LFB2
 2567 0024 1C000000 		.4byte	.LFE2-.LFB2
 2568 0028 00000000 		.4byte	.LFB3
 2569 002c 0C000000 		.4byte	.LFE3-.LFB3
 2570 0030 00000000 		.4byte	.LFB4
 2571 0034 74010000 		.4byte	.LFE4-.LFB4
 2572 0038 00000000 		.4byte	.LFB5
 2573 003c 54010000 		.4byte	.LFE5-.LFB5
 2574 0040 00000000 		.4byte	.LFB6
 2575 0044 78000000 		.4byte	.LFE6-.LFB6
 2576 0048 00000000 		.4byte	.LFB7
 2577 004c 3C000000 		.4byte	.LFE7-.LFB7
 2578 0050 00000000 		.4byte	.LFB8
 2579 0054 6C000000 		.4byte	.LFE8-.LFB8
 2580 0058 00000000 		.4byte	.LFB9
 2581 005c 74000000 		.4byte	.LFE9-.LFB9
 2582 0060 00000000 		.4byte	.LFB10
 2583 0064 6C000000 		.4byte	.LFE10-.LFB10
 2584 0068 00000000 		.4byte	.LFB11
 2585 006c 74000000 		.4byte	.LFE11-.LFB11
 2586 0070 00000000 		.4byte	.LFB12
 2587 0074 E4000000 		.4byte	.LFE12-.LFB12
 2588 0078 00000000 		.4byte	0
 2589 007c 00000000 		.4byte	0
 2590              		.section	.debug_ranges,"",%progbits
 2591              	.Ldebug_ranges0:
 2592 0000 00000000 		.4byte	.LFB0
 2593 0004 1A000000 		.4byte	.LFE0
 2594 0008 00000000 		.4byte	.LFB1
 2595 000c 1C000000 		.4byte	.LFE1
 2596 0010 00000000 		.4byte	.LFB2
 2597 0014 1C000000 		.4byte	.LFE2
 2598 0018 00000000 		.4byte	.LFB3
 2599 001c 0C000000 		.4byte	.LFE3
 2600 0020 00000000 		.4byte	.LFB4
 2601 0024 74010000 		.4byte	.LFE4
 2602 0028 00000000 		.4byte	.LFB5
 2603 002c 54010000 		.4byte	.LFE5
 2604 0030 00000000 		.4byte	.LFB6
 2605 0034 78000000 		.4byte	.LFE6
 2606 0038 00000000 		.4byte	.LFB7
 2607 003c 3C000000 		.4byte	.LFE7
 2608 0040 00000000 		.4byte	.LFB8
 2609 0044 6C000000 		.4byte	.LFE8
 2610 0048 00000000 		.4byte	.LFB9
 2611 004c 74000000 		.4byte	.LFE9
 2612 0050 00000000 		.4byte	.LFB10
 2613 0054 6C000000 		.4byte	.LFE10
 2614 0058 00000000 		.4byte	.LFB11
 2615 005c 74000000 		.4byte	.LFE11
 2616 0060 00000000 		.4byte	.LFB12
 2617 0064 E4000000 		.4byte	.LFE12
 2618 0068 00000000 		.4byte	0
 2619 006c 00000000 		.4byte	0
 2620              		.section	.debug_line,"",%progbits
ARM GAS  C:\Users\nm\AppData\Local\Temp\ccfftuKh.s 			page 60


 2621              	.Ldebug_line0:
 2622 0000 7E020000 		.section	.debug_str,"MS",%progbits,1
 2622      0200CD00 
 2622      00000201 
 2622      FB0E0D00 
 2622      01010101 
 2623              	.LASF13:
 2624 0000 75696E74 		.ascii	"uint16\000"
 2624      313600
 2625              	.LASF11:
 2626 0007 73697A65 		.ascii	"size_t\000"
 2626      5F7400
 2627              	.LASF23:
 2628 000e 4379436C 		.ascii	"CyClockStartupError\000"
 2628      6F636B53 
 2628      74617274 
 2628      75704572 
 2628      726F7200 
 2629              	.LASF8:
 2630 0022 6C6F6E67 		.ascii	"long long unsigned int\000"
 2630      206C6F6E 
 2630      6720756E 
 2630      7369676E 
 2630      65642069 
 2631              	.LASF25:
 2632 0039 6366675F 		.ascii	"cfg_dma_init\000"
 2632      646D615F 
 2632      696E6974 
 2632      00
 2633              	.LASF40:
 2634 0046 416E616C 		.ascii	"AnalogSetDefault\000"
 2634      6F675365 
 2634      74446566 
 2634      61756C74 
 2634      00
 2635              	.LASF7:
 2636 0057 6C6F6E67 		.ascii	"long long int\000"
 2636      206C6F6E 
 2636      6720696E 
 2636      7400
 2637              	.LASF1:
 2638 0065 7369676E 		.ascii	"signed char\000"
 2638      65642063 
 2638      68617200 
 2639              	.LASF19:
 2640 0071 43594D45 		.ascii	"CYMEMZERO\000"
 2640      4D5A4552 
 2640      4F00
 2641              	.LASF35:
 2642 007b 4346475F 		.ascii	"CFG_TD_LIST0\000"
 2642      54445F4C 
 2642      49535430 
 2642      00
 2643              	.LASF37:
 2644 0088 436C6F63 		.ascii	"ClockSetup\000"
 2644      6B536574 
 2644      757000
ARM GAS  C:\Users\nm\AppData\Local\Temp\ccfftuKh.s 			page 61


 2645              	.LASF24:
 2646 0093 6572726F 		.ascii	"errorCode\000"
 2646      72436F64 
 2646      6500
 2647              	.LASF5:
 2648 009d 6C6F6E67 		.ascii	"long int\000"
 2648      20696E74 
 2648      00
 2649              	.LASF32:
 2650 00a6 4348365F 		.ascii	"CH6_ADDR_DATA0\000"
 2650      41444452 
 2650      5F444154 
 2650      413000
 2651              	.LASF18:
 2652 00b5 72656731 		.ascii	"reg16\000"
 2652      3600
 2653              	.LASF12:
 2654 00bb 75696E74 		.ascii	"uint8\000"
 2654      3800
 2655              	.LASF27:
 2656 00c1 6E657874 		.ascii	"next_td_ptr\000"
 2656      5F74645F 
 2656      70747200 
 2657              	.LASF16:
 2658 00cd 646F7562 		.ascii	"double\000"
 2658      6C6500
 2659              	.LASF51:
 2660 00d4 414D7578 		.ascii	"AMux_CYAMUXSIDE_A__maskTable\000"
 2660      5F435941 
 2660      4D555853 
 2660      4944455F 
 2660      415F5F6D 
 2661              	.LASF36:
 2662 00f1 4346475F 		.ascii	"CFG_TD_ADDR0\000"
 2662      54445F41 
 2662      44445230 
 2662      00
 2663              	.LASF14:
 2664 00fe 75696E74 		.ascii	"uint32\000"
 2664      333200
 2665              	.LASF49:
 2666 0105 414D7578 		.ascii	"AMux_CYAMUXSIDE_B_Unset\000"
 2666      5F435941 
 2666      4D555853 
 2666      4944455F 
 2666      425F556E 
 2667              	.LASF43:
 2668 011d 72656756 		.ascii	"regValue\000"
 2668      616C7565 
 2668      00
 2669              	.LASF50:
 2670 0126 414D7578 		.ascii	"AMux_CYAMUXSIDE_A__addrTable\000"
 2670      5F435941 
 2670      4D555853 
 2670      4944455F 
 2670      415F5F61 
 2671              	.LASF45:
ARM GAS  C:\Users\nm\AppData\Local\Temp\ccfftuKh.s 			page 62


 2672 0143 414D7578 		.ascii	"AMux_CYAMUXSIDE_A_Set\000"
 2672      5F435941 
 2672      4D555853 
 2672      4944455F 
 2672      415F5365 
 2673              	.LASF0:
 2674 0159 756E7369 		.ascii	"unsigned int\000"
 2674      676E6564 
 2674      20696E74 
 2674      00
 2675              	.LASF55:
 2676 0166 2E5C4765 		.ascii	".\\Generated_Source\\PSoC5\\cyfitter_cfg.c\000"
 2676      6E657261 
 2676      7465645F 
 2676      536F7572 
 2676      63655C50 
 2677              	.LASF6:
 2678 018e 6C6F6E67 		.ascii	"long unsigned int\000"
 2678      20756E73 
 2678      69676E65 
 2678      6420696E 
 2678      7400
 2679              	.LASF38:
 2680 01a0 74696D65 		.ascii	"timeout\000"
 2680      6F757400 
 2681              	.LASF33:
 2682 01a8 444D415F 		.ascii	"DMA_TD_START_CMD\000"
 2682      54445F53 
 2682      54415254 
 2682      5F434D44 
 2682      00
 2683              	.LASF26:
 2684 01b9 73697A65 		.ascii	"size\000"
 2684      00
 2685              	.LASF4:
 2686 01be 73686F72 		.ascii	"short unsigned int\000"
 2686      7420756E 
 2686      7369676E 
 2686      65642069 
 2686      6E7400
 2687              	.LASF22:
 2688 01d1 4359434F 		.ascii	"CYCONFIGCPYCODE\000"
 2688      4E464947 
 2688      43505943 
 2688      4F444500 
 2689              	.LASF9:
 2690 01e1 73697A65 		.ascii	"sizetype\000"
 2690      74797065 
 2690      00
 2691              	.LASF41:
 2692 01ea 62675F78 		.ascii	"bg_xover_inl_trim\000"
 2692      6F766572 
 2692      5F696E6C 
 2692      5F747269 
 2692      6D00
 2693              	.LASF54:
 2694 01fc 474E5520 		.ascii	"GNU C 4.9.3 20150303 (release) [ARM/embedded-4_9-br"
ARM GAS  C:\Users\nm\AppData\Local\Temp\ccfftuKh.s 			page 63


 2694      4320342E 
 2694      392E3320 
 2694      32303135 
 2694      30333033 
 2695 022f 616E6368 		.ascii	"anch revision 221220] -mcpu=cortex-m3 -mthumb -g -O"
 2695      20726576 
 2695      6973696F 
 2695      6E203232 
 2695      31323230 
 2696 0262 30202D66 		.ascii	"0 -ffunction-sections -ffat-lto-objects\000"
 2696      66756E63 
 2696      74696F6E 
 2696      2D736563 
 2696      74696F6E 
 2697              	.LASF21:
 2698 028a 64657374 		.ascii	"dest\000"
 2698      00
 2699              	.LASF15:
 2700 028f 666C6F61 		.ascii	"float\000"
 2700      7400
 2701              	.LASF53:
 2702 0295 414D7578 		.ascii	"AMux_CYAMUXSIDE_B__maskTable\000"
 2702      5F435941 
 2702      4D555853 
 2702      4944455F 
 2702      425F5F6D 
 2703              	.LASF17:
 2704 02b2 72656738 		.ascii	"reg8\000"
 2704      00
 2705              	.LASF2:
 2706 02b7 756E7369 		.ascii	"unsigned char\000"
 2706      676E6564 
 2706      20636861 
 2706      7200
 2707              	.LASF57:
 2708 02c5 74645F74 		.ascii	"td_t\000"
 2708      00
 2709              	.LASF52:
 2710 02ca 414D7578 		.ascii	"AMux_CYAMUXSIDE_B__addrTable\000"
 2710      5F435941 
 2710      4D555853 
 2710      4944455F 
 2710      425F5F61 
 2711              	.LASF3:
 2712 02e7 73686F72 		.ascii	"short int\000"
 2712      7420696E 
 2712      7400
 2713              	.LASF29:
 2714 02f1 4348315F 		.ascii	"CH1_ADDR_DATA0\000"
 2714      41444452 
 2714      5F444154 
 2714      413000
 2715              	.LASF39:
 2716 0300 706C6C4C 		.ascii	"pllLock\000"
 2716      6F636B00 
 2717              	.LASF46:
 2718 0308 6368616E 		.ascii	"channel\000"
ARM GAS  C:\Users\nm\AppData\Local\Temp\ccfftuKh.s 			page 64


 2718      6E656C00 
 2719              	.LASF30:
 2720 0310 4348325F 		.ascii	"CH2_ADDR_DATA0\000"
 2720      41444452 
 2720      5F444154 
 2720      413000
 2721              	.LASF47:
 2722 031f 414D7578 		.ascii	"AMux_CYAMUXSIDE_A_Unset\000"
 2722      5F435941 
 2722      4D555853 
 2722      4944455F 
 2722      415F556E 
 2723              	.LASF10:
 2724 0337 63686172 		.ascii	"char\000"
 2724      00
 2725              	.LASF56:
 2726 033c 433A5C55 		.ascii	"C:\\Users\\nm\\Desktop\\TempSenseExample\\CE210514_"
 2726      73657273 
 2726      5C6E6D5C 
 2726      4465736B 
 2726      746F705C 
 2727 036a 50534F43 		.ascii	"PSOC3_5_Thermistor.cydsn\000"
 2727      335F355F 
 2727      54686572 
 2727      6D697374 
 2727      6F722E63 
 2728              	.LASF44:
 2729 0383 53657441 		.ascii	"SetAnalogRoutingPumps\000"
 2729      6E616C6F 
 2729      67526F75 
 2729      74696E67 
 2729      50756D70 
 2730              	.LASF42:
 2731 0399 656E6162 		.ascii	"enabled\000"
 2731      6C656400 
 2732              	.LASF31:
 2733 03a1 4348355F 		.ascii	"CH5_ADDR_DATA0\000"
 2733      41444452 
 2733      5F444154 
 2733      413000
 2734              	.LASF20:
 2735 03b0 4359434F 		.ascii	"CYCONFIGCPY\000"
 2735      4E464947 
 2735      43505900 
 2736              	.LASF28:
 2737 03bc 666C6167 		.ascii	"flags\000"
 2737      7300
 2738              	.LASF48:
 2739 03c2 414D7578 		.ascii	"AMux_CYAMUXSIDE_B_Set\000"
 2739      5F435941 
 2739      4D555853 
 2739      4944455F 
 2739      425F5365 
 2740              	.LASF34:
 2741 03d8 444D415F 		.ascii	"DMA_ZERO_VAL\000"
 2741      5A45524F 
 2741      5F56414C 
ARM GAS  C:\Users\nm\AppData\Local\Temp\ccfftuKh.s 			page 65


 2741      00
 2742              	.LASF58:
 2743 03e5 63796669 		.ascii	"cyfitter_cfg\000"
 2743      74746572 
 2743      5F636667 
 2743      00
 2744              		.ident	"GCC: (GNU Tools for ARM Embedded Processors) 4.9.3 20150303 (release) [ARM/embedded-4_9-br
