ARM GAS  C:\Users\nm\AppData\Local\Temp\ccqTHbWq.s 			page 1


   1              		.syntax unified
   2              		.cpu cortex-m3
   3              		.fpu softvfp
   4              		.eabi_attribute 20, 1
   5              		.eabi_attribute 21, 1
   6              		.eabi_attribute 23, 3
   7              		.eabi_attribute 24, 1
   8              		.eabi_attribute 25, 1
   9              		.eabi_attribute 26, 1
  10              		.eabi_attribute 30, 6
  11              		.eabi_attribute 34, 1
  12              		.eabi_attribute 18, 4
  13              		.thumb
  14              		.file	"main.c"
  15              		.text
  16              	.Ltext0:
  17              		.cfi_sections	.debug_frame
  18              		.global	__aeabi_i2f
  19              		.global	__aeabi_fdiv
  20              		.global	__aeabi_fmul
  21              		.global	__aeabi_f2iz
  22              		.section	.rodata
  23              		.align	2
  24              	.LC0:
  25 0000 54656D70 		.ascii	"Temp=%ld.%02ld    \000"
  25      3D256C64 
  25      2E253032 
  25      6C642020 
  25      202000
  26 0013 00       		.align	2
  27              	.LC1:
  28 0014 0A0D00   		.ascii	"\012\015\000"
  29 0017 00       		.section	.text.main,"ax",%progbits
  30              		.align	2
  31              		.global	main
  32              		.thumb
  33              		.thumb_func
  34              		.type	main, %function
  35              	main:
  36              	.LFB63:
  37              		.file 1 ".\\main.c"
   1:.\main.c      **** /*****************************************************************************
   2:.\main.c      **** * File Name: main.c
   3:.\main.c      **** *
   4:.\main.c      **** * Version: 3.0
   5:.\main.c      **** *
   6:.\main.c      **** * Description:
   7:.\main.c      **** *   The main C file for the Temperature measurement with Thermistor project. 
   8:.\main.c      **** * 
   9:.\main.c      **** * Note:
  10:.\main.c      **** * 	The main project includes the ADC and other components required for the
  11:.\main.c      **** *   temperature measurement. The Thermistor component is a complete firmware component
  12:.\main.c      **** *   as decribed in the component datahseet and application note
  13:.\main.c      **** ******************************************************************************
  14:.\main.c      **** * Copyright (C) 2015, Cypress Semiconductor Corporation.
  15:.\main.c      **** ******************************************************************************
  16:.\main.c      **** * This software is owned by Cypress Semiconductor Corporation (Cypress) and is
ARM GAS  C:\Users\nm\AppData\Local\Temp\ccqTHbWq.s 			page 2


  17:.\main.c      **** * protected by and subject to worldwide patent protection (United States and
  18:.\main.c      **** * foreign), United States copyright laws and international treaty provisions.
  19:.\main.c      **** * Cypress hereby grants to licensee a personal, non-exclusive, non-transferable
  20:.\main.c      **** * license to copy, use, modify, create derivative works of, and compile the
  21:.\main.c      **** * Cypress Source Code and derivative works for the sole purpose of creating
  22:.\main.c      **** * custom software in support of licensee product to be used only in conjunction
  23:.\main.c      **** * with a Cypress integrated circuit as specified in the applicable agreement.
  24:.\main.c      **** * Any reproduction, modification, translation, compilation, or representation of
  25:.\main.c      **** * this software except as specified above is prohibited without the express
  26:.\main.c      **** * written permission of Cypress.
  27:.\main.c      **** *
  28:.\main.c      **** * Disclaimer: CYPRESS MAKES NO WARRANTY OF ANY KIND, EXPRESS OR IMPLIED, WITH
  29:.\main.c      **** * REGARD TO THIS MATERIAL, INCLUDING, BUT NOT LIMITED TO, THE IMPLIED
  30:.\main.c      **** * WARRANTIES OF MERCHANTABILITY AND FITNESS FOR A PARTICULAR PURPOSE.
  31:.\main.c      **** * Cypress reserves the right to make changes without further notice to the
  32:.\main.c      **** * materials described herein. Cypress does not assume any liability arising out
  33:.\main.c      **** * of the application or use of any product or circuit described herein. Cypress
  34:.\main.c      **** * does not authorize its products for use as critical components in life-support
  35:.\main.c      **** * systems where a malfunction or failure may reasonably be expected to result in
  36:.\main.c      **** * significant injury to the user. The inclusion of Cypress' product in a life-
  37:.\main.c      **** * support systems application implies that the manufacturer assumes all risk of
  38:.\main.c      **** * such use and in doing so indemnifies Cypress against all charges. Use may be
  39:.\main.c      **** * limited by and subject to the applicable Cypress software license agreement.
  40:.\main.c      **** *****************************************************************************/
  41:.\main.c      **** #include <device.h>
  42:.\main.c      **** #include "removeOffsetNoise.h"
  43:.\main.c      **** #include "measurement.h"
  44:.\main.c      **** #include <stdio.h>
  45:.\main.c      **** 	
  46:.\main.c      **** int main(void)
  47:.\main.c      **** {
  38              		.loc 1 47 0
  39              		.cfi_startproc
  40              		@ args = 0, pretend = 0, frame = 40
  41              		@ frame_needed = 1, uses_anonymous_args = 0
  42 0000 90B5     		push	{r4, r7, lr}
  43              		.cfi_def_cfa_offset 12
  44              		.cfi_offset 4, -12
  45              		.cfi_offset 7, -8
  46              		.cfi_offset 14, -4
  47 0002 8BB0     		sub	sp, sp, #44
  48              		.cfi_def_cfa_offset 56
  49 0004 00AF     		add	r7, sp, #0
  50              		.cfi_def_cfa_register 7
  48:.\main.c      **** 	/* Voltages across reference resistor and thermistor*/
  49:.\main.c      **** 	int32 iVref, iVtherm;
  50:.\main.c      **** 	
  51:.\main.c      **** 	/* Resistance of Thermistor*/
  52:.\main.c      **** 	uint32 iRes;
  53:.\main.c      **** 	
  54:.\main.c      **** 	/* Temperature value in 100ths of a degree C*/
  55:.\main.c      **** 	int32 iTemp;
  56:.\main.c      ****     
  57:.\main.c      ****     /*Decimal Temp*/
  58:.\main.c      ****     int32 decTemp;
  59:.\main.c      ****     
  60:.\main.c      ****     /*Fractional Temp*/
ARM GAS  C:\Users\nm\AppData\Local\Temp\ccqTHbWq.s 			page 3


  61:.\main.c      ****     int32 fracTemp;
  62:.\main.c      **** 	
  63:.\main.c      **** 	/* Dispaly format string */
  64:.\main.c      **** 	char printBuf[16]={'\0'};
  51              		.loc 1 64 0
  52 0006 3B46     		mov	r3, r7
  53 0008 0022     		movs	r2, #0
  54 000a 1A60     		str	r2, [r3]
  55 000c 0433     		adds	r3, r3, #4
  56 000e 0022     		movs	r2, #0
  57 0010 1A60     		str	r2, [r3]
  58 0012 0433     		adds	r3, r3, #4
  59 0014 0022     		movs	r2, #0
  60 0016 1A60     		str	r2, [r3]
  61 0018 0433     		adds	r3, r3, #4
  62 001a 0022     		movs	r2, #0
  63 001c 1A60     		str	r2, [r3]
  64 001e 0433     		adds	r3, r3, #4
  65:.\main.c      **** 
  66:.\main.c      **** 	/*Enable global interrupts*/
  67:.\main.c      **** 	CYGlobalIntEnable; 
  65              		.loc 1 67 0
  66              	@ 67 ".\main.c" 1
  67 0020 62B6     		CPSIE   i
  68              	@ 0 "" 2
  68:.\main.c      **** 	
  69:.\main.c      **** 	/*Start all the hardware components required*/
  70:.\main.c      **** 	ADC_Start();
  69              		.loc 1 70 0
  70              		.thumb
  71 0022 FFF7FEFF 		bl	ADC_Start
  71:.\main.c      **** 	AMux_Start();
  72              		.loc 1 71 0
  73 0026 FFF7FEFF 		bl	AMux_Start
  72:.\main.c      **** 	VDAC8_Start();
  74              		.loc 1 72 0
  75 002a FFF7FEFF 		bl	VDAC8_Start
  73:.\main.c      **** 	Opamp_Start();
  76              		.loc 1 73 0
  77 002e FFF7FEFF 		bl	Opamp_Start
  74:.\main.c      ****     UART_Start();
  78              		.loc 1 74 0
  79 0032 FFF7FEFF 		bl	UART_Start
  80              	.L3:
  75:.\main.c      **** 
  76:.\main.c      **** 
  77:.\main.c      **** 	for(;;)
  78:.\main.c      ****     {
  79:.\main.c      **** 
  80:.\main.c      ****     	/* Measure Voltage Across Thermistor*/
  81:.\main.c      ****     	iVtherm = MeasureResistorVoltage(AMUX_1_VT); 
  81              		.loc 1 81 0
  82 0036 0020     		movs	r0, #0
  83 0038 FFF7FEFF 		bl	MeasureResistorVoltage
  84 003c 3862     		str	r0, [r7, #32]
  82:.\main.c      **** 		
  83:.\main.c      **** 		/* Measure Voltage Across Reference Resistor*/
ARM GAS  C:\Users\nm\AppData\Local\Temp\ccqTHbWq.s 			page 4


  84:.\main.c      ****     	iVref = MeasureResistorVoltage(AMUX_1_VREF);
  85              		.loc 1 84 0
  86 003e 0120     		movs	r0, #1
  87 0040 FFF7FEFF 		bl	MeasureResistorVoltage
  88 0044 F861     		str	r0, [r7, #28]
  85:.\main.c      **** 
  86:.\main.c      **** 	   	/*Calculate the resistance of the Thermistor*/
  87:.\main.c      **** 		iRes = (int32)(((float)iVtherm / iVref) * REFERENCE_RESISTOR);
  89              		.loc 1 87 0
  90 0046 386A     		ldr	r0, [r7, #32]
  91 0048 FFF7FEFF 		bl	__aeabi_i2f
  92 004c 0446     		mov	r4, r0
  93 004e F869     		ldr	r0, [r7, #28]
  94 0050 FFF7FEFF 		bl	__aeabi_i2f
  95 0054 0346     		mov	r3, r0
  96 0056 2046     		mov	r0, r4
  97 0058 1946     		mov	r1, r3
  98 005a FFF7FEFF 		bl	__aeabi_fdiv
  99 005e 0346     		mov	r3, r0
 100 0060 1846     		mov	r0, r3
 101 0062 1949     		ldr	r1, .L4
 102 0064 FFF7FEFF 		bl	__aeabi_fmul
 103 0068 0346     		mov	r3, r0
 104 006a 1846     		mov	r0, r3
 105 006c FFF7FEFF 		bl	__aeabi_f2iz
 106 0070 0346     		mov	r3, r0
 107 0072 BB61     		str	r3, [r7, #24]
  88:.\main.c      ****         
  89:.\main.c      ****         /* Use the thermistor component API function call to obtain 
  90:.\main.c      ****         the temperature corresponding to the resistance measured*/	
  91:.\main.c      ****     	iTemp = Thermistor_GetTemperature(iRes);
 108              		.loc 1 91 0
 109 0074 B869     		ldr	r0, [r7, #24]
 110 0076 FFF7FEFF 		bl	Thermistor_GetTemperature
 111 007a 0346     		mov	r3, r0
 112 007c 7B61     		str	r3, [r7, #20]
  92:.\main.c      ****         
  93:.\main.c      ****     	/*Display -- For Debug*/	
  94:.\main.c      **** 
  95:.\main.c      ****     	/*Determine decimal portion of temperature by dividing temperature by 100*/
  96:.\main.c      ****         decTemp = iTemp/100;
 113              		.loc 1 96 0
 114 007e 7B69     		ldr	r3, [r7, #20]
 115 0080 124A     		ldr	r2, .L4+4
 116 0082 82FB0312 		smull	r1, r2, r2, r3
 117 0086 5211     		asrs	r2, r2, #5
 118 0088 DB17     		asrs	r3, r3, #31
 119 008a D31A     		subs	r3, r2, r3
 120 008c 3B61     		str	r3, [r7, #16]
  97:.\main.c      ****         
  98:.\main.c      ****         /*Determine fraction portion of temperature by subtracting decimal portion from result*/
  99:.\main.c      ****         fracTemp = iTemp - (decTemp * 100);
 121              		.loc 1 99 0
 122 008e 3B69     		ldr	r3, [r7, #16]
 123 0090 6FF06302 		mvn	r2, #99
 124 0094 02FB03F2 		mul	r2, r2, r3
 125 0098 7B69     		ldr	r3, [r7, #20]
ARM GAS  C:\Users\nm\AppData\Local\Temp\ccqTHbWq.s 			page 5


 126 009a 1344     		add	r3, r3, r2
 127 009c 7B62     		str	r3, [r7, #36]
 100:.\main.c      ****         /*If fractional temperature is negative make it positive*/
 101:.\main.c      ****         if(fracTemp < 0)
 128              		.loc 1 101 0
 129 009e 7B6A     		ldr	r3, [r7, #36]
 130 00a0 002B     		cmp	r3, #0
 131 00a2 02DA     		bge	.L2
 102:.\main.c      ****         {
 103:.\main.c      ****             fracTemp *= -1;
 132              		.loc 1 103 0
 133 00a4 7B6A     		ldr	r3, [r7, #36]
 134 00a6 5B42     		negs	r3, r3
 135 00a8 7B62     		str	r3, [r7, #36]
 136              	.L2:
 104:.\main.c      ****         }
 105:.\main.c      ****         
 106:.\main.c      ****         /*format string to print out over UART*/
 107:.\main.c      ****         sprintf(printBuf, "Temp=%ld.%02ld    ", decTemp, fracTemp); 
 137              		.loc 1 107 0
 138 00aa 3B46     		mov	r3, r7
 139 00ac 1846     		mov	r0, r3
 140 00ae 0849     		ldr	r1, .L4+8
 141 00b0 3A69     		ldr	r2, [r7, #16]
 142 00b2 7B6A     		ldr	r3, [r7, #36]
 143 00b4 FFF7FEFF 		bl	sprintf
 108:.\main.c      **** 		
 109:.\main.c      ****         /*Print result over UART*/
 110:.\main.c      ****         UART_PutString(printBuf);
 144              		.loc 1 110 0
 145 00b8 3B46     		mov	r3, r7
 146 00ba 1846     		mov	r0, r3
 147 00bc FFF7FEFF 		bl	UART_PutString
 111:.\main.c      ****         UART_PutString("\n\r");
 148              		.loc 1 111 0
 149 00c0 0448     		ldr	r0, .L4+12
 150 00c2 FFF7FEFF 		bl	UART_PutString
 112:.\main.c      ****         
 113:.\main.c      ****     }
 151              		.loc 1 113 0
 152 00c6 B6E7     		b	.L3
 153              	.L5:
 154              		.align	2
 155              	.L4:
 156 00c8 00401C46 		.word	1176256512
 157 00cc 1F85EB51 		.word	1374389535
 158 00d0 00000000 		.word	.LC0
 159 00d4 14000000 		.word	.LC1
 160              		.cfi_endproc
 161              	.LFE63:
 162              		.size	main, .-main
 163              		.text
 164              	.Letext0:
 165              		.file 2 "c:\\program files (x86)\\cypress\\psoc creator\\3.3\\psoc creator\\import\\gnu\\arm\\4.9.
 166              		.file 3 "c:\\program files (x86)\\cypress\\psoc creator\\3.3\\psoc creator\\import\\gnu\\arm\\4.9.
 167              		.file 4 "Generated_Source\\PSoC5/cytypes.h"
 168              		.file 5 "Generated_Source\\PSoC5/core_cm3.h"
ARM GAS  C:\Users\nm\AppData\Local\Temp\ccqTHbWq.s 			page 6

