ARM GAS  C:\Users\nm\AppData\Local\Temp\cc2m9XUO.s 			page 1


   1              		.syntax unified
   2              		.cpu cortex-m3
   3              		.fpu softvfp
   4              		.eabi_attribute 20, 1
   5              		.eabi_attribute 21, 1
   6              		.eabi_attribute 23, 3
   7              		.eabi_attribute 24, 1
   8              		.eabi_attribute 25, 1
   9              		.eabi_attribute 26, 1
  10              		.eabi_attribute 30, 6
  11              		.eabi_attribute 34, 1
  12              		.eabi_attribute 18, 4
  13              		.thumb
  14              		.file	"measurement.c"
  15              		.text
  16              	.Ltext0:
  17              		.cfi_sections	.debug_frame
  18              		.section	.text.MeasureResistorVoltage,"ax",%progbits
  19              		.align	2
  20              		.global	MeasureResistorVoltage
  21              		.thumb
  22              		.thumb_func
  23              		.type	MeasureResistorVoltage, %function
  24              	MeasureResistorVoltage:
  25              	.LFB63:
  26              		.file 1 ".\\measurement.c"
   1:.\measurement.c **** /******************************************************************************
   2:.\measurement.c **** * File Name: measurement.c
   3:.\measurement.c **** *  Version 2.0
   4:.\measurement.c **** *
   5:.\measurement.c **** * Description:
   6:.\measurement.c **** *  This file contains the function that are used find the voltage across the resistor
   7:.\measurement.c **** * 
   8:.\measurement.c **** * Note:
   9:.\measurement.c **** *
  10:.\measurement.c **** ********************************************************************************
  11:.\measurement.c **** * Copyright (2015), Cypress Semiconductor Corporation. All Rights Reserved.
  12:.\measurement.c **** ********************************************************************************
  13:.\measurement.c **** * This software is owned by Cypress Semiconductor Corporation (Cypress)
  14:.\measurement.c **** * and is protected by and subject to worldwide patent protection (United
  15:.\measurement.c **** * States and foreign), United States copyright laws and international treaty
  16:.\measurement.c **** * provisions. Cypress hereby grants to licensee a personal, non-exclusive,
  17:.\measurement.c **** * non-transferable license to copy, use, modify, create derivative works of,
  18:.\measurement.c **** * and compile the Cypress Source Code and derivative works for the sole
  19:.\measurement.c **** * purpose of creating custom software in support of licensee product to be
  20:.\measurement.c **** * used only in conjunction with a Cypress integrated circuit as specified in
  21:.\measurement.c **** * the applicable agreement. Any reproduction, modification, translation,
  22:.\measurement.c **** * compilation, or representation of this software except as specified above 
  23:.\measurement.c **** * is prohibited without the express written permission of Cypress.
  24:.\measurement.c **** *
  25:.\measurement.c **** * Disclaimer: CYPRESS MAKES NO WARRANTY OF ANY KIND, EXPRESS OR IMPLIED, WITH 
  26:.\measurement.c **** * REGARD TO THIS MATERIAL, INCLUDING, BUT NOT LIMITED TO, THE IMPLIED 
  27:.\measurement.c **** * WARRANTIES OF MERCHANTABILITY AND FITNESS FOR A PARTICULAR PURPOSE.
  28:.\measurement.c **** * Cypress reserves the right to make changes without further notice to the 
  29:.\measurement.c **** * materials described herein. Cypress does not assume any liability arising out 
  30:.\measurement.c **** * of the application or use of any product or circuit described herein. Cypress 
  31:.\measurement.c **** * does not authorize its products for use as critical components in life-support 
ARM GAS  C:\Users\nm\AppData\Local\Temp\cc2m9XUO.s 			page 2


  32:.\measurement.c **** * systems where a malfunction or failure may reasonably be expected to result in 
  33:.\measurement.c **** * significant injury to the user. The inclusion of Cypress' product in a life-
  34:.\measurement.c **** * support systems application implies that the manufacturer assumes all risk of 
  35:.\measurement.c **** * such use and in doing so indemnifies Cypress against all charges. 
  36:.\measurement.c **** *
  37:.\measurement.c **** * Use of this Software may be limited by and subject to the applicable Cypress
  38:.\measurement.c **** * software license agreement. 
  39:.\measurement.c **** *******************************************************************************/
  40:.\measurement.c **** #include "measurement.h"
  41:.\measurement.c **** #include "removeOffsetNoise.h"
  42:.\measurement.c **** #include <device.h>
  43:.\measurement.c **** 
  44:.\measurement.c **** /*******************************************************************************
  45:.\measurement.c **** *  Function Name: MeasureResistorVoltage
  46:.\measurement.c **** ********************************************************************************
  47:.\measurement.c **** * Summary:
  48:.\measurement.c **** * This functions returns the voltage across the resistor. Either Thermistor or Reference 
  49:.\measurement.c **** *
  50:.\measurement.c **** * Parameters:
  51:.\measurement.c **** * none
  52:.\measurement.c **** *
  53:.\measurement.c **** * Return: 
  54:.\measurement.c **** * resistor voltage in ADC counts
  55:.\measurement.c **** 
  56:.\measurement.c **** * Theory:
  57:.\measurement.c **** * Measure voltage across the resistor. Subtract offset from value, and filter value
  58:.\measurement.c **** *
  59:.\measurement.c **** * Side Effects:
  60:.\measurement.c **** * None
  61:.\measurement.c **** *******************************************************************************/
  62:.\measurement.c **** int32 MeasureResistorVoltage(uint8 channel)
  63:.\measurement.c **** {
  27              		.loc 1 63 0
  28              		.cfi_startproc
  29              		@ args = 0, pretend = 0, frame = 16
  30              		@ frame_needed = 1, uses_anonymous_args = 0
  31 0000 80B5     		push	{r7, lr}
  32              		.cfi_def_cfa_offset 8
  33              		.cfi_offset 7, -8
  34              		.cfi_offset 14, -4
  35 0002 84B0     		sub	sp, sp, #16
  36              		.cfi_def_cfa_offset 24
  37 0004 00AF     		add	r7, sp, #0
  38              		.cfi_def_cfa_register 7
  39 0006 0346     		mov	r3, r0
  40 0008 FB71     		strb	r3, [r7, #7]
  64:.\measurement.c **** 	/* Voltage across resistor*/
  65:.\measurement.c **** 	int32 result;
  66:.\measurement.c **** 	
  67:.\measurement.c **** 	/* Offset Voltage*/
  68:.\measurement.c **** 	int32 offset;
  69:.\measurement.c **** 
  70:.\measurement.c **** 	/* Select correct AMUX channel*/	
  71:.\measurement.c **** 	AMux_FastSelect(channel);
  41              		.loc 1 71 0
  42 000a FB79     		ldrb	r3, [r7, #7]	@ zero_extendqisi2
  43 000c 1846     		mov	r0, r3
ARM GAS  C:\Users\nm\AppData\Local\Temp\cc2m9XUO.s 			page 3


  44 000e FFF7FEFF 		bl	AMux_FastSelect
  72:.\measurement.c **** 	
  73:.\measurement.c **** 	/* Read voltage across  resistor*/
  74:.\measurement.c ****     ADC_StartConvert();
  45              		.loc 1 74 0
  46 0012 FFF7FEFF 		bl	ADC_StartConvert
  75:.\measurement.c **** 	
  76:.\measurement.c **** 	ADC_IsEndConversion(ADC_WAIT_FOR_RESULT);
  47              		.loc 1 76 0
  48 0016 0020     		movs	r0, #0
  49 0018 FFF7FEFF 		bl	ADC_IsEndConversion
  77:.\measurement.c **** 	result = ADC_GetResult32();
  50              		.loc 1 77 0
  51 001c FFF7FEFF 		bl	ADC_GetResult32
  52 0020 F860     		str	r0, [r7, #12]
  78:.\measurement.c **** 	
  79:.\measurement.c **** 	/* Get the offset voltage*/
  80:.\measurement.c **** 	offset = GetOffset(); 
  53              		.loc 1 80 0
  54 0022 FFF7FEFF 		bl	GetOffset
  55 0026 B860     		str	r0, [r7, #8]
  81:.\measurement.c **** 	
  82:.\measurement.c **** 	/* Get CDS difference*/
  83:.\measurement.c **** 	result = result - offset;
  56              		.loc 1 83 0
  57 0028 FA68     		ldr	r2, [r7, #12]
  58 002a BB68     		ldr	r3, [r7, #8]
  59 002c D31A     		subs	r3, r2, r3
  60 002e FB60     		str	r3, [r7, #12]
  84:.\measurement.c ****     
  85:.\measurement.c **** 	/* Filter signal*/
  86:.\measurement.c **** 	result = FilterSignal(result, channel);
  61              		.loc 1 86 0
  62 0030 FB79     		ldrb	r3, [r7, #7]	@ zero_extendqisi2
  63 0032 F868     		ldr	r0, [r7, #12]
  64 0034 1946     		mov	r1, r3
  65 0036 FFF7FEFF 		bl	FilterSignal
  66 003a F860     		str	r0, [r7, #12]
  87:.\measurement.c **** 
  88:.\measurement.c **** 	return result;
  67              		.loc 1 88 0
  68 003c FB68     		ldr	r3, [r7, #12]
  89:.\measurement.c **** 	
  90:.\measurement.c **** }
  69              		.loc 1 90 0
  70 003e 1846     		mov	r0, r3
  71 0040 1037     		adds	r7, r7, #16
  72              		.cfi_def_cfa_offset 8
  73 0042 BD46     		mov	sp, r7
  74              		.cfi_def_cfa_register 13
  75              		@ sp needed
  76 0044 80BD     		pop	{r7, pc}
  77              		.cfi_endproc
  78              	.LFE63:
  79              		.size	MeasureResistorVoltage, .-MeasureResistorVoltage
  80 0046 00BF     		.text
  81              	.Letext0:
ARM GAS  C:\Users\nm\AppData\Local\Temp\cc2m9XUO.s 			page 4


  82              		.file 2 "c:\\program files (x86)\\cypress\\psoc creator\\3.3\\psoc creator\\import\\gnu\\arm\\4.9.
  83              		.file 3 "c:\\program files (x86)\\cypress\\psoc creator\\3.3\\psoc creator\\import\\gnu\\arm\\4.9.
  84              		.file 4 "Generated_Source\\PSoC5/cytypes.h"
  85              		.file 5 "Generated_Source\\PSoC5/core_cm3.h"