ARM GAS  C:\Users\nm\AppData\Local\Temp\ccYO8qC7.s 			page 1


   1              		.syntax unified
   2              		.cpu cortex-m3
   3              		.fpu softvfp
   4              		.eabi_attribute 20, 1
   5              		.eabi_attribute 21, 1
   6              		.eabi_attribute 23, 3
   7              		.eabi_attribute 24, 1
   8              		.eabi_attribute 25, 1
   9              		.eabi_attribute 26, 1
  10              		.eabi_attribute 30, 6
  11              		.eabi_attribute 34, 1
  12              		.eabi_attribute 18, 4
  13              		.thumb
  14              		.file	"removeOffsetNoise.c"
  15              		.text
  16              	.Ltext0:
  17              		.cfi_sections	.debug_frame
  18              		.section	.text.FilterSignal,"ax",%progbits
  19              		.align	2
  20              		.global	FilterSignal
  21              		.thumb
  22              		.thumb_func
  23              		.type	FilterSignal, %function
  24              	FilterSignal:
  25              	.LFB63:
  26              		.file 1 ".\\removeOffsetNoise.c"
   1:.\removeOffsetNoise.c **** /******************************************************************************
   2:.\removeOffsetNoise.c **** * File Name: removeOffsetNoise.c
   3:.\removeOffsetNoise.c **** *  Version 2.0
   4:.\removeOffsetNoise.c **** *
   5:.\removeOffsetNoise.c **** * Description:
   6:.\removeOffsetNoise.c **** *  This file contains the functions that are used to find offset and perform 
   7:.\removeOffsetNoise.c **** *  IIR filter
   8:.\removeOffsetNoise.c **** *
   9:.\removeOffsetNoise.c **** * Note:
  10:.\removeOffsetNoise.c **** *
  11:.\removeOffsetNoise.c **** ********************************************************************************
  12:.\removeOffsetNoise.c **** * Copyright (2015), Cypress Semiconductor Corporation. All Rights Reserved.
  13:.\removeOffsetNoise.c **** ********************************************************************************
  14:.\removeOffsetNoise.c **** * This software is owned by Cypress Semiconductor Corporation (Cypress)
  15:.\removeOffsetNoise.c **** * and is protected by and subject to worldwide patent protection (United
  16:.\removeOffsetNoise.c **** * States and foreign), United States copyright laws and international treaty
  17:.\removeOffsetNoise.c **** * provisions. Cypress hereby grants to licensee a personal, non-exclusive,
  18:.\removeOffsetNoise.c **** * non-transferable license to copy, use, modify, create derivative works of,
  19:.\removeOffsetNoise.c **** * and compile the Cypress Source Code and derivative works for the sole
  20:.\removeOffsetNoise.c **** * purpose of creating custom software in support of licensee product to be
  21:.\removeOffsetNoise.c **** * used only in conjunction with a Cypress integrated circuit as specified in
  22:.\removeOffsetNoise.c **** * the applicable agreement. Any reproduction, modification, translation,
  23:.\removeOffsetNoise.c **** * compilation, or representation of this software except as specified above 
  24:.\removeOffsetNoise.c **** * is prohibited without the express written permission of Cypress.
  25:.\removeOffsetNoise.c **** *
  26:.\removeOffsetNoise.c **** * Disclaimer: CYPRESS MAKES NO WARRANTY OF ANY KIND, EXPRESS OR IMPLIED, WITH 
  27:.\removeOffsetNoise.c **** * REGARD TO THIS MATERIAL, INCLUDING, BUT NOT LIMITED TO, THE IMPLIED 
  28:.\removeOffsetNoise.c **** * WARRANTIES OF MERCHANTABILITY AND FITNESS FOR A PARTICULAR PURPOSE.
  29:.\removeOffsetNoise.c **** * Cypress reserves the right to make changes without further notice to the 
  30:.\removeOffsetNoise.c **** * materials described herein. Cypress does not assume any liability arising out 
  31:.\removeOffsetNoise.c **** * of the application or use of any product or circuit described herein. Cypress 
ARM GAS  C:\Users\nm\AppData\Local\Temp\ccYO8qC7.s 			page 2


  32:.\removeOffsetNoise.c **** * does not authorize its products for use as critical components in life-support 
  33:.\removeOffsetNoise.c **** * systems where a malfunction or failure may reasonably be expected to result in 
  34:.\removeOffsetNoise.c **** * significant injury to the user. The inclusion of Cypress' product in a life-
  35:.\removeOffsetNoise.c **** * support systems application implies that the manufacturer assumes all risk of 
  36:.\removeOffsetNoise.c **** * such use and in doing so indemnifies Cypress against all charges. 
  37:.\removeOffsetNoise.c **** *
  38:.\removeOffsetNoise.c **** * Use of this Software may be limited by and subject to the applicable Cypress
  39:.\removeOffsetNoise.c **** * software license agreement. 
  40:.\removeOffsetNoise.c **** *******************************************************************************/
  41:.\removeOffsetNoise.c **** #include "removeOffsetNoise.h"
  42:.\removeOffsetNoise.c **** #include "measurement.h"
  43:.\removeOffsetNoise.c **** #include <device.h>
  44:.\removeOffsetNoise.c **** 
  45:.\removeOffsetNoise.c **** /*******************************************************************************
  46:.\removeOffsetNoise.c **** *  Function Name: FilterSignal
  47:.\removeOffsetNoise.c **** ********************************************************************************
  48:.\removeOffsetNoise.c **** * Summary:
  49:.\removeOffsetNoise.c **** *  This is IIR filter to process the sampled ADC data. For first sample passed 
  50:.\removeOffsetNoise.c **** *  the function simply returns the passed ADC sample. for second sample onwards,
  51:.\removeOffsetNoise.c **** *  Fraction of input signal based upon the filter coefficient, is calculated and 
  52:.\removeOffsetNoise.c **** *  added to the previously stored filtered value.
  53:.\removeOffsetNoise.c **** *
  54:.\removeOffsetNoise.c **** * Parameters:
  55:.\removeOffsetNoise.c **** * (int32)  ADCSample       - ADC sample read for given signal
  56:.\removeOffsetNoise.c **** * (uint8)  Sensor		   - Sensor to be Filtered
  57:.\removeOffsetNoise.c **** *
  58:.\removeOffsetNoise.c **** * Return: 
  59:.\removeOffsetNoise.c **** * (int32)filValueRounded - filtered value passed is updated after applying 
  60:.\removeOffsetNoise.c **** * IIR filter to the ADC sample.
  61:.\removeOffsetNoise.c **** *
  62:.\removeOffsetNoise.c **** * Theory:
  63:.\removeOffsetNoise.c **** * For more information on the IIR filter please refer to Cypress application
  64:.\removeOffsetNoise.c **** * note AN2099.
  65:.\removeOffsetNoise.c **** *
  66:.\removeOffsetNoise.c **** * Side Effects:
  67:.\removeOffsetNoise.c **** * None
  68:.\removeOffsetNoise.c **** *******************************************************************************/
  69:.\removeOffsetNoise.c **** int32 FilterSignal(int32 ADCSample, uint8 sensor)
  70:.\removeOffsetNoise.c **** {
  27              		.loc 1 70 0
  28              		.cfi_startproc
  29              		@ args = 0, pretend = 0, frame = 16
  30              		@ frame_needed = 1, uses_anonymous_args = 0
  31              		@ link register save eliminated.
  32 0000 80B4     		push	{r7}
  33              		.cfi_def_cfa_offset 4
  34              		.cfi_offset 7, -4
  35 0002 85B0     		sub	sp, sp, #20
  36              		.cfi_def_cfa_offset 24
  37 0004 00AF     		add	r7, sp, #0
  38              		.cfi_def_cfa_register 7
  39 0006 7860     		str	r0, [r7, #4]
  40 0008 0B46     		mov	r3, r1
  41 000a FB70     		strb	r3, [r7, #3]
  71:.\removeOffsetNoise.c **** 	/* Running filtered value accumulator */
  72:.\removeOffsetNoise.c **** 	static int32 filteredValue[NUM_SENSORS] = {0,0};
  73:.\removeOffsetNoise.c **** 	
ARM GAS  C:\Users\nm\AppData\Local\Temp\ccYO8qC7.s 			page 3


  74:.\removeOffsetNoise.c **** 	/* Filtered value rounded-off to 20-bits */
  75:.\removeOffsetNoise.c **** 	int32 filValueRounded;
  76:.\removeOffsetNoise.c **** 	
  77:.\removeOffsetNoise.c **** 	/* Left shift input by MAX_FILTER_COEFF_SHIFT to allow divisions up to MAX_FILTER_COEFF_SHIFT */
  78:.\removeOffsetNoise.c **** 	ADCSample <<= MAX_FILTER_COEFF_SHIFT;
  42              		.loc 1 78 0
  43 000c 7B68     		ldr	r3, [r7, #4]
  44 000e 1B02     		lsls	r3, r3, #8
  45 0010 7B60     		str	r3, [r7, #4]
  79:.\removeOffsetNoise.c **** 	   
  80:.\removeOffsetNoise.c **** 	/* Pass the filter input as it is for fast changes in input */
  81:.\removeOffsetNoise.c ****     if ( (ADCSample > (filteredValue[sensor] + FILTER_FEEDFORWARD)) || (ADCSample < (filteredValue[
  46              		.loc 1 81 0
  47 0012 FB78     		ldrb	r3, [r7, #3]	@ zero_extendqisi2
  48 0014 1D4A     		ldr	r2, .L6
  49 0016 52F82330 		ldr	r3, [r2, r3, lsl #2]
  50 001a 03F54852 		add	r2, r3, #12800
  51 001e 7B68     		ldr	r3, [r7, #4]
  52 0020 9A42     		cmp	r2, r3
  53 0022 08DB     		blt	.L2
  54              		.loc 1 81 0 is_stmt 0 discriminator 1
  55 0024 FB78     		ldrb	r3, [r7, #3]	@ zero_extendqisi2
  56 0026 194A     		ldr	r2, .L6
  57 0028 52F82330 		ldr	r3, [r2, r3, lsl #2]
  58 002c A3F54852 		sub	r2, r3, #12800
  59 0030 7B68     		ldr	r3, [r7, #4]
  60 0032 9A42     		cmp	r2, r3
  61 0034 05DD     		ble	.L3
  62              	.L2:
  82:.\removeOffsetNoise.c ****     {
  83:.\removeOffsetNoise.c ****         filteredValue[sensor] = ADCSample;
  63              		.loc 1 83 0 is_stmt 1
  64 0036 FB78     		ldrb	r3, [r7, #3]	@ zero_extendqisi2
  65 0038 1449     		ldr	r1, .L6
  66 003a 7A68     		ldr	r2, [r7, #4]
  67 003c 41F82320 		str	r2, [r1, r3, lsl #2]
  68 0040 0EE0     		b	.L4
  69              	.L3:
  84:.\removeOffsetNoise.c ****     }
  85:.\removeOffsetNoise.c ****     
  86:.\removeOffsetNoise.c ****     /* If not the first sample then based on filter coefficient, filter the 
  87:.\removeOffsetNoise.c ****      * input signal */
  88:.\removeOffsetNoise.c ****     else
  89:.\removeOffsetNoise.c ****     {
  90:.\removeOffsetNoise.c **** 		/* IIR filter */
  91:.\removeOffsetNoise.c **** 		filteredValue[sensor] = filteredValue[sensor] + ((ADCSample - filteredValue[sensor]) >> RTD_FILTE
  70              		.loc 1 91 0
  71 0042 FB78     		ldrb	r3, [r7, #3]	@ zero_extendqisi2
  72 0044 FA78     		ldrb	r2, [r7, #3]	@ zero_extendqisi2
  73 0046 1149     		ldr	r1, .L6
  74 0048 51F82210 		ldr	r1, [r1, r2, lsl #2]
  75 004c FA78     		ldrb	r2, [r7, #3]	@ zero_extendqisi2
  76 004e 0F48     		ldr	r0, .L6
  77 0050 50F82220 		ldr	r2, [r0, r2, lsl #2]
  78 0054 7868     		ldr	r0, [r7, #4]
  79 0056 821A     		subs	r2, r0, r2
  80 0058 0A44     		add	r2, r2, r1
ARM GAS  C:\Users\nm\AppData\Local\Temp\ccYO8qC7.s 			page 4


  81 005a 0C49     		ldr	r1, .L6
  82 005c 41F82320 		str	r2, [r1, r3, lsl #2]
  83              	.L4:
  92:.\removeOffsetNoise.c **** 	}
  93:.\removeOffsetNoise.c **** 	
  94:.\removeOffsetNoise.c **** 	/* Compensate filter result for  left shift of 8 and round off */
  95:.\removeOffsetNoise.c **** 	filValueRounded = (filteredValue[sensor] >> MAX_FILTER_COEFF_SHIFT) + ((filteredValue[sensor] & 0x
  84              		.loc 1 95 0
  85 0060 FB78     		ldrb	r3, [r7, #3]	@ zero_extendqisi2
  86 0062 0A4A     		ldr	r2, .L6
  87 0064 52F82330 		ldr	r3, [r2, r3, lsl #2]
  88 0068 1A12     		asrs	r2, r3, #8
  89 006a FB78     		ldrb	r3, [r7, #3]	@ zero_extendqisi2
  90 006c 0749     		ldr	r1, .L6
  91 006e 51F82330 		ldr	r3, [r1, r3, lsl #2]
  92 0072 03F08003 		and	r3, r3, #128
  93 0076 DB11     		asrs	r3, r3, #7
  94 0078 1344     		add	r3, r3, r2
  95 007a FB60     		str	r3, [r7, #12]
  96:.\removeOffsetNoise.c **** 	
  97:.\removeOffsetNoise.c ****     return filValueRounded;
  96              		.loc 1 97 0
  97 007c FB68     		ldr	r3, [r7, #12]
  98:.\removeOffsetNoise.c **** }
  98              		.loc 1 98 0
  99 007e 1846     		mov	r0, r3
 100 0080 1437     		adds	r7, r7, #20
 101              		.cfi_def_cfa_offset 4
 102 0082 BD46     		mov	sp, r7
 103              		.cfi_def_cfa_register 13
 104              		@ sp needed
 105 0084 5DF8047B 		ldr	r7, [sp], #4
 106              		.cfi_restore 7
 107              		.cfi_def_cfa_offset 0
 108 0088 7047     		bx	lr
 109              	.L7:
 110 008a 00BF     		.align	2
 111              	.L6:
 112 008c 00000000 		.word	filteredValue.6192
 113              		.cfi_endproc
 114              	.LFE63:
 115              		.size	FilterSignal, .-FilterSignal
 116              		.section	.text.GetOffset,"ax",%progbits
 117              		.align	2
 118              		.global	GetOffset
 119              		.thumb
 120              		.thumb_func
 121              		.type	GetOffset, %function
 122              	GetOffset:
 123              	.LFB64:
  99:.\removeOffsetNoise.c **** 
 100:.\removeOffsetNoise.c **** /*******************************************************************************
 101:.\removeOffsetNoise.c **** *  Function Name: GetOffset
 102:.\removeOffsetNoise.c **** ********************************************************************************
 103:.\removeOffsetNoise.c **** * Summary:
 104:.\removeOffsetNoise.c **** * This function shorts the inputs of the ADC together and reads the offset. 
 105:.\removeOffsetNoise.c **** *
ARM GAS  C:\Users\nm\AppData\Local\Temp\ccYO8qC7.s 			page 5


 106:.\removeOffsetNoise.c **** * Parameters:
 107:.\removeOffsetNoise.c **** * void:
 108:.\removeOffsetNoise.c **** *
 109:.\removeOffsetNoise.c **** * Return:
 110:.\removeOffsetNoise.c **** * int32: result (offset value).
 111:.\removeOffsetNoise.c **** *
 112:.\removeOffsetNoise.c **** * Theory:
 113:.\removeOffsetNoise.c **** *
 114:.\removeOffsetNoise.c **** * Side Effects:
 115:.\removeOffsetNoise.c **** * None
 116:.\removeOffsetNoise.c **** *******************************************************************************/
 117:.\removeOffsetNoise.c **** int32 GetOffset(void)
 118:.\removeOffsetNoise.c **** {
 124              		.loc 1 118 0
 125              		.cfi_startproc
 126              		@ args = 0, pretend = 0, frame = 8
 127              		@ frame_needed = 1, uses_anonymous_args = 0
 128 0000 80B5     		push	{r7, lr}
 129              		.cfi_def_cfa_offset 8
 130              		.cfi_offset 7, -8
 131              		.cfi_offset 14, -4
 132 0002 82B0     		sub	sp, sp, #8
 133              		.cfi_def_cfa_offset 16
 134 0004 00AF     		add	r7, sp, #0
 135              		.cfi_def_cfa_register 7
 119:.\removeOffsetNoise.c **** 	int32 result;
 120:.\removeOffsetNoise.c **** 
 121:.\removeOffsetNoise.c ****   	/*Select the MUX channel and Measure the offset voltage*/	
 122:.\removeOffsetNoise.c **** 	AMux_FastSelect(AMUX_1_CDS);
 136              		.loc 1 122 0
 137 0006 0220     		movs	r0, #2
 138 0008 FFF7FEFF 		bl	AMux_FastSelect
 123:.\removeOffsetNoise.c ****     ADC_StartConvert();
 139              		.loc 1 123 0
 140 000c FFF7FEFF 		bl	ADC_StartConvert
 124:.\removeOffsetNoise.c **** 	ADC_IsEndConversion(ADC_WAIT_FOR_RESULT);
 141              		.loc 1 124 0
 142 0010 0020     		movs	r0, #0
 143 0012 FFF7FEFF 		bl	ADC_IsEndConversion
 125:.\removeOffsetNoise.c **** 	result = ADC_GetResult32();
 144              		.loc 1 125 0
 145 0016 FFF7FEFF 		bl	ADC_GetResult32
 146 001a 7860     		str	r0, [r7, #4]
 126:.\removeOffsetNoise.c **** 
 127:.\removeOffsetNoise.c ****     return result;
 147              		.loc 1 127 0
 148 001c 7B68     		ldr	r3, [r7, #4]
 128:.\removeOffsetNoise.c **** }
 149              		.loc 1 128 0
 150 001e 1846     		mov	r0, r3
 151 0020 0837     		adds	r7, r7, #8
 152              		.cfi_def_cfa_offset 8
 153 0022 BD46     		mov	sp, r7
 154              		.cfi_def_cfa_register 13
 155              		@ sp needed
 156 0024 80BD     		pop	{r7, pc}
 157              		.cfi_endproc
ARM GAS  C:\Users\nm\AppData\Local\Temp\ccYO8qC7.s 			page 6


 158              	.LFE64:
 159              		.size	GetOffset, .-GetOffset
 160 0026 00BF     		.bss
 161              		.align	2
 162              	filteredValue.6192:
 163 0000 00000000 		.space	8
 163      00000000 
 164              		.text
 165              	.Letext0:
 166              		.file 2 "c:\\program files (x86)\\cypress\\psoc creator\\3.3\\psoc creator\\import\\gnu\\arm\\4.9.
 167              		.file 3 "c:\\program files (x86)\\cypress\\psoc creator\\3.3\\psoc creator\\import\\gnu\\arm\\4.9.
 168              		.file 4 "Generated_Source\\PSoC5/cytypes.h"
 169              		.file 5 "Generated_Source\\PSoC5/core_cm3.h"