ARM GAS  C:\Users\nm\AppData\Local\Temp\ccHx5Ye3.s 			page 1


   1              		.syntax unified
   2              		.cpu cortex-m3
   3              		.fpu softvfp
   4              		.eabi_attribute 20, 1
   5              		.eabi_attribute 21, 1
   6              		.eabi_attribute 23, 3
   7              		.eabi_attribute 24, 1
   8              		.eabi_attribute 25, 1
   9              		.eabi_attribute 26, 1
  10              		.eabi_attribute 30, 6
  11              		.eabi_attribute 34, 1
  12              		.eabi_attribute 18, 4
  13              		.thumb
  14              		.file	"Thermistor.c"
  15              		.text
  16              	.Ltext0:
  17              		.cfi_sections	.debug_frame
  18              		.section	.text.Thermistor_GetResistance,"ax",%progbits
  19              		.align	2
  20              		.global	Thermistor_GetResistance
  21              		.thumb
  22              		.thumb_func
  23              		.type	Thermistor_GetResistance, %function
  24              	Thermistor_GetResistance:
  25              	.LFB0:
  26              		.file 1 ".\\Generated_Source\\PSoC5\\Thermistor.c"
   1:.\Generated_Source\PSoC5/Thermistor.c **** /*******************************************************************************
   2:.\Generated_Source\PSoC5/Thermistor.c **** * File Name: Thermistor.c
   3:.\Generated_Source\PSoC5/Thermistor.c **** * Version 1.20
   4:.\Generated_Source\PSoC5/Thermistor.c **** *
   5:.\Generated_Source\PSoC5/Thermistor.c **** * Description:
   6:.\Generated_Source\PSoC5/Thermistor.c **** *  This file provides the source code to the API for the ThermistorCalc
   7:.\Generated_Source\PSoC5/Thermistor.c **** *  Component.
   8:.\Generated_Source\PSoC5/Thermistor.c **** *
   9:.\Generated_Source\PSoC5/Thermistor.c **** * Note:
  10:.\Generated_Source\PSoC5/Thermistor.c **** *  None.
  11:.\Generated_Source\PSoC5/Thermistor.c **** *
  12:.\Generated_Source\PSoC5/Thermistor.c **** ********************************************************************************
  13:.\Generated_Source\PSoC5/Thermistor.c **** * Copyright 2013, Cypress Semiconductor Corporation.  All rights reserved.
  14:.\Generated_Source\PSoC5/Thermistor.c **** * You may use this file only in accordance with the license, terms, conditions,
  15:.\Generated_Source\PSoC5/Thermistor.c **** * disclaimers, and limitations in the end user license agreement accompanying
  16:.\Generated_Source\PSoC5/Thermistor.c **** * the software package with which this file was provided.
  17:.\Generated_Source\PSoC5/Thermistor.c **** *******************************************************************************/
  18:.\Generated_Source\PSoC5/Thermistor.c **** 
  19:.\Generated_Source\PSoC5/Thermistor.c **** #include "Thermistor.h"
  20:.\Generated_Source\PSoC5/Thermistor.c **** 
  21:.\Generated_Source\PSoC5/Thermistor.c **** 
  22:.\Generated_Source\PSoC5/Thermistor.c **** /*******************************************************************************
  23:.\Generated_Source\PSoC5/Thermistor.c **** * Function Name: Thermistor_GetResistance
  24:.\Generated_Source\PSoC5/Thermistor.c **** ********************************************************************************
  25:.\Generated_Source\PSoC5/Thermistor.c **** *
  26:.\Generated_Source\PSoC5/Thermistor.c **** * Summary:
  27:.\Generated_Source\PSoC5/Thermistor.c **** *  The digital values of the voltages across the reference resistor and the
  28:.\Generated_Source\PSoC5/Thermistor.c **** *  thermistor are passed to this function as parameters. The function returns
  29:.\Generated_Source\PSoC5/Thermistor.c **** *  the resistance, based on the voltage values.
  30:.\Generated_Source\PSoC5/Thermistor.c **** *
  31:.\Generated_Source\PSoC5/Thermistor.c **** * Parameters:
ARM GAS  C:\Users\nm\AppData\Local\Temp\ccHx5Ye3.s 			page 2


  32:.\Generated_Source\PSoC5/Thermistor.c **** *  vReference: the voltage across the reference resistor;
  33:.\Generated_Source\PSoC5/Thermistor.c **** *  vThermistor: the voltage across the thermistor.
  34:.\Generated_Source\PSoC5/Thermistor.c **** *  The ratio of these two voltages is used by this function. Therefore, the
  35:.\Generated_Source\PSoC5/Thermistor.c **** *  units for both parameters must be the same.
  36:.\Generated_Source\PSoC5/Thermistor.c **** *
  37:.\Generated_Source\PSoC5/Thermistor.c **** * Return:
  38:.\Generated_Source\PSoC5/Thermistor.c **** *  The return value is the resistance across the thermistor. The value returned
  39:.\Generated_Source\PSoC5/Thermistor.c **** *  is the resistance in Ohms.
  40:.\Generated_Source\PSoC5/Thermistor.c **** *
  41:.\Generated_Source\PSoC5/Thermistor.c **** *******************************************************************************/
  42:.\Generated_Source\PSoC5/Thermistor.c **** uint32 Thermistor_GetResistance(int16 vReference, int16 vThermistor)
  43:.\Generated_Source\PSoC5/Thermistor.c ****                                       
  44:.\Generated_Source\PSoC5/Thermistor.c **** {
  27              		.loc 1 44 0
  28              		.cfi_startproc
  29              		@ args = 0, pretend = 0, frame = 16
  30              		@ frame_needed = 1, uses_anonymous_args = 0
  31              		@ link register save eliminated.
  32 0000 80B4     		push	{r7}
  33              		.cfi_def_cfa_offset 4
  34              		.cfi_offset 7, -4
  35 0002 85B0     		sub	sp, sp, #20
  36              		.cfi_def_cfa_offset 24
  37 0004 00AF     		add	r7, sp, #0
  38              		.cfi_def_cfa_register 7
  39 0006 0346     		mov	r3, r0
  40 0008 0A46     		mov	r2, r1
  41 000a FB80     		strh	r3, [r7, #6]	@ movhi
  42 000c 1346     		mov	r3, r2	@ movhi
  43 000e BB80     		strh	r3, [r7, #4]	@ movhi
  45:.\Generated_Source\PSoC5/Thermistor.c ****     int32 resT;
  46:.\Generated_Source\PSoC5/Thermistor.c ****     int16 temp;
  47:.\Generated_Source\PSoC5/Thermistor.c **** 
  48:.\Generated_Source\PSoC5/Thermistor.c ****     /* Calculate thermistor resistance from the voltages */
  49:.\Generated_Source\PSoC5/Thermistor.c ****     resT = Thermistor_REF_RESISTOR * ((int32)vThermistor);
  44              		.loc 1 49 0
  45 0010 B7F90430 		ldrsh	r3, [r7, #4]
  46 0014 42F21072 		movw	r2, #10000
  47 0018 02FB03F3 		mul	r3, r2, r3
  48 001c BB60     		str	r3, [r7, #8]
  50:.\Generated_Source\PSoC5/Thermistor.c ****     if (vReference < 0)
  49              		.loc 1 50 0
  50 001e B7F90630 		ldrsh	r3, [r7, #6]
  51 0022 002B     		cmp	r3, #0
  52 0024 0CDA     		bge	.L2
  51:.\Generated_Source\PSoC5/Thermistor.c ****     {
  52:.\Generated_Source\PSoC5/Thermistor.c ****         temp = -vReference;
  53              		.loc 1 52 0
  54 0026 FB88     		ldrh	r3, [r7, #6]
  55 0028 5B42     		negs	r3, r3
  56 002a 9BB2     		uxth	r3, r3
  57 002c FB81     		strh	r3, [r7, #14]	@ movhi
  53:.\Generated_Source\PSoC5/Thermistor.c ****         temp = (int16)((uint16)((uint16)temp >> 1u));
  58              		.loc 1 53 0
  59 002e FB89     		ldrh	r3, [r7, #14]
  60 0030 5B08     		lsrs	r3, r3, #1
  61 0032 9BB2     		uxth	r3, r3
ARM GAS  C:\Users\nm\AppData\Local\Temp\ccHx5Ye3.s 			page 3


  62 0034 FB81     		strh	r3, [r7, #14]	@ movhi
  54:.\Generated_Source\PSoC5/Thermistor.c ****         temp = -temp;
  63              		.loc 1 54 0
  64 0036 FB89     		ldrh	r3, [r7, #14]
  65 0038 5B42     		negs	r3, r3
  66 003a 9BB2     		uxth	r3, r3
  67 003c FB81     		strh	r3, [r7, #14]	@ movhi
  68 003e 03E0     		b	.L3
  69              	.L2:
  55:.\Generated_Source\PSoC5/Thermistor.c ****     }
  56:.\Generated_Source\PSoC5/Thermistor.c ****     else
  57:.\Generated_Source\PSoC5/Thermistor.c ****     {
  58:.\Generated_Source\PSoC5/Thermistor.c ****         temp = (int16)((uint16)((uint16)vReference >> 1u));
  70              		.loc 1 58 0
  71 0040 FB88     		ldrh	r3, [r7, #6]
  72 0042 5B08     		lsrs	r3, r3, #1
  73 0044 9BB2     		uxth	r3, r3
  74 0046 FB81     		strh	r3, [r7, #14]	@ movhi
  75              	.L3:
  59:.\Generated_Source\PSoC5/Thermistor.c ****     }
  60:.\Generated_Source\PSoC5/Thermistor.c ****     resT += temp;
  76              		.loc 1 60 0
  77 0048 B7F90E30 		ldrsh	r3, [r7, #14]
  78 004c BA68     		ldr	r2, [r7, #8]
  79 004e 1344     		add	r3, r3, r2
  80 0050 BB60     		str	r3, [r7, #8]
  61:.\Generated_Source\PSoC5/Thermistor.c ****     resT /= vReference;
  81              		.loc 1 61 0
  82 0052 B7F90630 		ldrsh	r3, [r7, #6]
  83 0056 BA68     		ldr	r2, [r7, #8]
  84 0058 92FBF3F3 		sdiv	r3, r2, r3
  85 005c BB60     		str	r3, [r7, #8]
  62:.\Generated_Source\PSoC5/Thermistor.c **** 
  63:.\Generated_Source\PSoC5/Thermistor.c ****     /* The ordering of Reference resistor value is specifically designed to keep the result from ov
  64:.\Generated_Source\PSoC5/Thermistor.c ****     return ((uint32)((uint32)resT << Thermistor_REF_RES_SHIFT));
  86              		.loc 1 64 0
  87 005e BB68     		ldr	r3, [r7, #8]
  65:.\Generated_Source\PSoC5/Thermistor.c **** }
  88              		.loc 1 65 0
  89 0060 1846     		mov	r0, r3
  90 0062 1437     		adds	r7, r7, #20
  91              		.cfi_def_cfa_offset 4
  92 0064 BD46     		mov	sp, r7
  93              		.cfi_def_cfa_register 13
  94              		@ sp needed
  95 0066 5DF8047B 		ldr	r7, [sp], #4
  96              		.cfi_restore 7
  97              		.cfi_def_cfa_offset 0
  98 006a 7047     		bx	lr
  99              		.cfi_endproc
 100              	.LFE0:
 101              		.size	Thermistor_GetResistance, .-Thermistor_GetResistance
 102              		.global	__aeabi_ui2d
 103              		.global	__aeabi_d2f
 104              		.global	__aeabi_f2d
 105              		.global	__aeabi_dmul
 106              		.global	__aeabi_dadd
ARM GAS  C:\Users\nm\AppData\Local\Temp\ccHx5Ye3.s 			page 4


 107              		.global	__aeabi_ddiv
 108              		.global	__aeabi_dsub
 109              		.global	__aeabi_f2iz
 110              		.section	.text.Thermistor_GetTemperature,"ax",%progbits
 111              		.align	2
 112              		.global	Thermistor_GetTemperature
 113              		.thumb
 114              		.thumb_func
 115              		.type	Thermistor_GetTemperature, %function
 116              	Thermistor_GetTemperature:
 117              	.LFB1:
  66:.\Generated_Source\PSoC5/Thermistor.c **** 
  67:.\Generated_Source\PSoC5/Thermistor.c **** 
  68:.\Generated_Source\PSoC5/Thermistor.c **** /*******************************************************************************
  69:.\Generated_Source\PSoC5/Thermistor.c **** * Function Name: Thermistor_GetTemperature
  70:.\Generated_Source\PSoC5/Thermistor.c **** ********************************************************************************
  71:.\Generated_Source\PSoC5/Thermistor.c **** *
  72:.\Generated_Source\PSoC5/Thermistor.c **** * Summary:
  73:.\Generated_Source\PSoC5/Thermistor.c **** *  The value of the thermistor resistance is passed to this function as a
  74:.\Generated_Source\PSoC5/Thermistor.c **** *  parameter. The function returns the temperature, based on the resistance
  75:.\Generated_Source\PSoC5/Thermistor.c **** *  value. The method used to calculate the temperature is dependent on whether
  76:.\Generated_Source\PSoC5/Thermistor.c **** *  Equation or LUT was selected in the Customizer.
  77:.\Generated_Source\PSoC5/Thermistor.c **** *
  78:.\Generated_Source\PSoC5/Thermistor.c **** * Parameters:
  79:.\Generated_Source\PSoC5/Thermistor.c **** *  resT: the resistance across the thermistor in Ohms.
  80:.\Generated_Source\PSoC5/Thermistor.c **** *
  81:.\Generated_Source\PSoC5/Thermistor.c **** * Return:
  82:.\Generated_Source\PSoC5/Thermistor.c **** *  The return value is the temperature in 1/100ths of degrees C. For example,
  83:.\Generated_Source\PSoC5/Thermistor.c **** *  the return value is 2345, when the actual temperature is 23.45 degrees C.
  84:.\Generated_Source\PSoC5/Thermistor.c **** *
  85:.\Generated_Source\PSoC5/Thermistor.c **** *******************************************************************************/
  86:.\Generated_Source\PSoC5/Thermistor.c **** int16 Thermistor_GetTemperature(uint32 resT) 
  87:.\Generated_Source\PSoC5/Thermistor.c **** {
 118              		.loc 1 87 0
 119              		.cfi_startproc
 120              		@ args = 0, pretend = 0, frame = 24
 121              		@ frame_needed = 1, uses_anonymous_args = 0
 122 0000 B0B5     		push	{r4, r5, r7, lr}
 123              		.cfi_def_cfa_offset 16
 124              		.cfi_offset 4, -16
 125              		.cfi_offset 5, -12
 126              		.cfi_offset 7, -8
 127              		.cfi_offset 14, -4
 128 0002 86B0     		sub	sp, sp, #24
 129              		.cfi_def_cfa_offset 40
 130 0004 00AF     		add	r7, sp, #0
 131              		.cfi_def_cfa_register 7
 132 0006 7860     		str	r0, [r7, #4]
  88:.\Generated_Source\PSoC5/Thermistor.c ****     int16 tempTR;
  89:.\Generated_Source\PSoC5/Thermistor.c ****     
  90:.\Generated_Source\PSoC5/Thermistor.c ****     #if (Thermistor_IMPLEMENTATION == Thermistor_EQUATION_METHOD)
  91:.\Generated_Source\PSoC5/Thermistor.c **** 
  92:.\Generated_Source\PSoC5/Thermistor.c ****         float32 stEqn;
  93:.\Generated_Source\PSoC5/Thermistor.c ****         float32 logrT;
  94:.\Generated_Source\PSoC5/Thermistor.c **** 
  95:.\Generated_Source\PSoC5/Thermistor.c ****         /* Calculate thermistor resistance from the voltages */
  96:.\Generated_Source\PSoC5/Thermistor.c ****         #if(!CY_PSOC3)
ARM GAS  C:\Users\nm\AppData\Local\Temp\ccHx5Ye3.s 			page 5


  97:.\Generated_Source\PSoC5/Thermistor.c ****             logrT = (float32)log((float64)resT);
 133              		.loc 1 97 0
 134 0008 7868     		ldr	r0, [r7, #4]
 135 000a FFF7FEFF 		bl	__aeabi_ui2d
 136 000e 0246     		mov	r2, r0
 137 0010 0B46     		mov	r3, r1
 138 0012 1046     		mov	r0, r2
 139 0014 1946     		mov	r1, r3
 140 0016 FFF7FEFF 		bl	log
 141 001a 0246     		mov	r2, r0
 142 001c 0B46     		mov	r3, r1
 143 001e 1046     		mov	r0, r2
 144 0020 1946     		mov	r1, r3
 145 0022 FFF7FEFF 		bl	__aeabi_d2f
 146 0026 0346     		mov	r3, r0
 147 0028 7B61     		str	r3, [r7, #20]	@ float
  98:.\Generated_Source\PSoC5/Thermistor.c ****         #else
  99:.\Generated_Source\PSoC5/Thermistor.c ****             logrT = log((float32)resT);
 100:.\Generated_Source\PSoC5/Thermistor.c ****         #endif  /* (!CY_PSOC3) */
 101:.\Generated_Source\PSoC5/Thermistor.c **** 
 102:.\Generated_Source\PSoC5/Thermistor.c ****         /* Calculate temperature from the resistance of thermistor using Steinhart-Hart Equation */
 103:.\Generated_Source\PSoC5/Thermistor.c ****         #if(!CY_PSOC3)
 104:.\Generated_Source\PSoC5/Thermistor.c ****             stEqn = (float32)(Thermistor_THA + (Thermistor_THB * logrT) + 
 148              		.loc 1 104 0
 149 002a 7869     		ldr	r0, [r7, #20]	@ float
 150 002c FFF7FEFF 		bl	__aeabi_f2d
 151 0030 0246     		mov	r2, r0
 152 0032 0B46     		mov	r3, r1
 153 0034 1046     		mov	r0, r2
 154 0036 1946     		mov	r1, r3
 155 0038 35A3     		adr	r3, .L7
 156 003a D3E90023 		ldrd	r2, [r3]
 157 003e FFF7FEFF 		bl	__aeabi_dmul
 158 0042 0246     		mov	r2, r0
 159 0044 0B46     		mov	r3, r1
 160 0046 1046     		mov	r0, r2
 161 0048 1946     		mov	r1, r3
 162 004a 33A3     		adr	r3, .L7+8
 163 004c D3E90023 		ldrd	r2, [r3]
 164 0050 FFF7FEFF 		bl	__aeabi_dadd
 165 0054 0246     		mov	r2, r0
 166 0056 0B46     		mov	r3, r1
 167 0058 1446     		mov	r4, r2
 168 005a 1D46     		mov	r5, r3
 105:.\Generated_Source\PSoC5/Thermistor.c ****                              (Thermistor_THC * pow((float64)logrT, (float32)3)));
 169              		.loc 1 105 0
 170 005c 7869     		ldr	r0, [r7, #20]	@ float
 171 005e FFF7FEFF 		bl	__aeabi_f2d
 172 0062 0246     		mov	r2, r0
 173 0064 0B46     		mov	r3, r1
 174 0066 1046     		mov	r0, r2
 175 0068 1946     		mov	r1, r3
 176 006a 4FF00002 		mov	r2, #0
 177 006e 304B     		ldr	r3, .L7+32
 178 0070 FFF7FEFF 		bl	pow
 179 0074 0246     		mov	r2, r0
 180 0076 0B46     		mov	r3, r1
ARM GAS  C:\Users\nm\AppData\Local\Temp\ccHx5Ye3.s 			page 6


 181 0078 1046     		mov	r0, r2
 182 007a 1946     		mov	r1, r3
 183 007c 28A3     		adr	r3, .L7+16
 184 007e D3E90023 		ldrd	r2, [r3]
 185 0082 FFF7FEFF 		bl	__aeabi_dmul
 186 0086 0246     		mov	r2, r0
 187 0088 0B46     		mov	r3, r1
 104:.\Generated_Source\PSoC5/Thermistor.c ****                              (Thermistor_THC * pow((float64)logrT, (float32)3)));
 188              		.loc 1 104 0
 189 008a 2046     		mov	r0, r4
 190 008c 2946     		mov	r1, r5
 191 008e FFF7FEFF 		bl	__aeabi_dadd
 192 0092 0246     		mov	r2, r0
 193 0094 0B46     		mov	r3, r1
 194 0096 1046     		mov	r0, r2
 195 0098 1946     		mov	r1, r3
 196 009a FFF7FEFF 		bl	__aeabi_d2f
 197 009e 0346     		mov	r3, r0
 198 00a0 3B61     		str	r3, [r7, #16]	@ float
 106:.\Generated_Source\PSoC5/Thermistor.c ****         #else
 107:.\Generated_Source\PSoC5/Thermistor.c ****             stEqn = (float32)(Thermistor_THA + (Thermistor_THB * logrT) + 
 108:.\Generated_Source\PSoC5/Thermistor.c ****                              (Thermistor_THC * pow(logrT, (float32)3)));
 109:.\Generated_Source\PSoC5/Thermistor.c ****         #endif  /* (!CY_PSOC3) */
 110:.\Generated_Source\PSoC5/Thermistor.c **** 
 111:.\Generated_Source\PSoC5/Thermistor.c ****         tempTR = (int16)((float32)((((1.0 / stEqn) - Thermistor_K2C) * (float32)Thermistor_SCALE) +
 199              		.loc 1 111 0
 200 00a2 3869     		ldr	r0, [r7, #16]	@ float
 201 00a4 FFF7FEFF 		bl	__aeabi_f2d
 202 00a8 0246     		mov	r2, r0
 203 00aa 0B46     		mov	r3, r1
 204 00ac 4FF00000 		mov	r0, #0
 205 00b0 2049     		ldr	r1, .L7+36
 206 00b2 FFF7FEFF 		bl	__aeabi_ddiv
 207 00b6 0246     		mov	r2, r0
 208 00b8 0B46     		mov	r3, r1
 209 00ba 1046     		mov	r0, r2
 210 00bc 1946     		mov	r1, r3
 211 00be 1AA3     		adr	r3, .L7+24
 212 00c0 D3E90023 		ldrd	r2, [r3]
 213 00c4 FFF7FEFF 		bl	__aeabi_dsub
 214 00c8 0246     		mov	r2, r0
 215 00ca 0B46     		mov	r3, r1
 216 00cc 1046     		mov	r0, r2
 217 00ce 1946     		mov	r1, r3
 218 00d0 4FF00002 		mov	r2, #0
 219 00d4 184B     		ldr	r3, .L7+40
 220 00d6 FFF7FEFF 		bl	__aeabi_dmul
 221 00da 0246     		mov	r2, r0
 222 00dc 0B46     		mov	r3, r1
 223 00de 1046     		mov	r0, r2
 224 00e0 1946     		mov	r1, r3
 225 00e2 4FF00002 		mov	r2, #0
 226 00e6 154B     		ldr	r3, .L7+44
 227 00e8 FFF7FEFF 		bl	__aeabi_dadd
 228 00ec 0246     		mov	r2, r0
 229 00ee 0B46     		mov	r3, r1
 230 00f0 1046     		mov	r0, r2
ARM GAS  C:\Users\nm\AppData\Local\Temp\ccHx5Ye3.s 			page 7


 231 00f2 1946     		mov	r1, r3
 232 00f4 FFF7FEFF 		bl	__aeabi_d2f
 233 00f8 0346     		mov	r3, r0
 234 00fa 1846     		mov	r0, r3
 235 00fc FFF7FEFF 		bl	__aeabi_f2iz
 236 0100 0346     		mov	r3, r0
 237 0102 FB81     		strh	r3, [r7, #14]	@ movhi
 112:.\Generated_Source\PSoC5/Thermistor.c **** 
 113:.\Generated_Source\PSoC5/Thermistor.c ****     #else /* Thermistor_IMPLEMENTATION == Thermistor_LUT_METHOD */
 114:.\Generated_Source\PSoC5/Thermistor.c **** 
 115:.\Generated_Source\PSoC5/Thermistor.c ****         uint16 mid;
 116:.\Generated_Source\PSoC5/Thermistor.c ****         uint16 first = 0u;
 117:.\Generated_Source\PSoC5/Thermistor.c ****         uint16 last = Thermistor_LUT_SIZE - 1u;
 118:.\Generated_Source\PSoC5/Thermistor.c **** 
 119:.\Generated_Source\PSoC5/Thermistor.c ****         /* Calculate temperature from the resistance of thermistor by using the LUT */
 120:.\Generated_Source\PSoC5/Thermistor.c ****         while (first < last)
 121:.\Generated_Source\PSoC5/Thermistor.c ****         {
 122:.\Generated_Source\PSoC5/Thermistor.c ****             mid = (first + last) >> 1u;
 123:.\Generated_Source\PSoC5/Thermistor.c **** 
 124:.\Generated_Source\PSoC5/Thermistor.c ****             if ((0u == mid) || ((Thermistor_LUT_SIZE - 1u) == mid) || (resT == Thermistor_LUT[mid])
 125:.\Generated_Source\PSoC5/Thermistor.c ****             {
 126:.\Generated_Source\PSoC5/Thermistor.c ****                 last = mid;
 127:.\Generated_Source\PSoC5/Thermistor.c ****                 break;
 128:.\Generated_Source\PSoC5/Thermistor.c ****             }
 129:.\Generated_Source\PSoC5/Thermistor.c ****             else if (Thermistor_LUT[mid] > resT)
 130:.\Generated_Source\PSoC5/Thermistor.c ****             {
 131:.\Generated_Source\PSoC5/Thermistor.c ****                 first = mid + 1u;
 132:.\Generated_Source\PSoC5/Thermistor.c ****             }
 133:.\Generated_Source\PSoC5/Thermistor.c ****             else /* (Thermistor_LUT[mid] < resT) */
 134:.\Generated_Source\PSoC5/Thermistor.c ****             {
 135:.\Generated_Source\PSoC5/Thermistor.c ****                 last = mid - 1u;
 136:.\Generated_Source\PSoC5/Thermistor.c ****             }
 137:.\Generated_Source\PSoC5/Thermistor.c ****         }
 138:.\Generated_Source\PSoC5/Thermistor.c **** 
 139:.\Generated_Source\PSoC5/Thermistor.c ****         /* Calculation the closest entry in the LUT */
 140:.\Generated_Source\PSoC5/Thermistor.c ****         if ((Thermistor_LUT[last] > resT) && (last < (Thermistor_LUT_SIZE - 1u)) &&
 141:.\Generated_Source\PSoC5/Thermistor.c ****            ((Thermistor_LUT[last] - resT) > (resT - Thermistor_LUT[last + 1u])))
 142:.\Generated_Source\PSoC5/Thermistor.c ****         {
 143:.\Generated_Source\PSoC5/Thermistor.c ****             last++;
 144:.\Generated_Source\PSoC5/Thermistor.c ****         }
 145:.\Generated_Source\PSoC5/Thermistor.c ****         else if ((Thermistor_LUT[last] < resT) && (last > 0u) &&
 146:.\Generated_Source\PSoC5/Thermistor.c ****                 ((Thermistor_LUT[last - 1u] - resT) < (resT - Thermistor_LUT[last])))
 147:.\Generated_Source\PSoC5/Thermistor.c ****         {
 148:.\Generated_Source\PSoC5/Thermistor.c ****             last--;
 149:.\Generated_Source\PSoC5/Thermistor.c ****         }
 150:.\Generated_Source\PSoC5/Thermistor.c ****         else
 151:.\Generated_Source\PSoC5/Thermistor.c ****         {
 152:.\Generated_Source\PSoC5/Thermistor.c ****             /* Closest entry in the LUT already found */
 153:.\Generated_Source\PSoC5/Thermistor.c ****         }
 154:.\Generated_Source\PSoC5/Thermistor.c **** 
 155:.\Generated_Source\PSoC5/Thermistor.c ****         tempTR = Thermistor_MIN_TEMP + (int16)((uint16)(last * Thermistor_ACCURACY));
 156:.\Generated_Source\PSoC5/Thermistor.c **** 
 157:.\Generated_Source\PSoC5/Thermistor.c ****     #endif /* (Thermistor_IMPLEMENTATION == Thermistor_EQUATION_METHOD) */
 158:.\Generated_Source\PSoC5/Thermistor.c **** 
 159:.\Generated_Source\PSoC5/Thermistor.c ****     return (tempTR);
 238              		.loc 1 159 0
 239 0104 FB89     		ldrh	r3, [r7, #14]
ARM GAS  C:\Users\nm\AppData\Local\Temp\ccHx5Ye3.s 			page 8


 240 0106 1BB2     		sxth	r3, r3
 160:.\Generated_Source\PSoC5/Thermistor.c **** }
 241              		.loc 1 160 0
 242 0108 1846     		mov	r0, r3
 243 010a 1837     		adds	r7, r7, #24
 244              		.cfi_def_cfa_offset 16
 245 010c BD46     		mov	sp, r7
 246              		.cfi_def_cfa_register 13
 247              		@ sp needed
 248 010e B0BD     		pop	{r4, r5, r7, pc}
 249              	.L8:
 250              		.align	3
 251              	.L7:
 252 0110 72A6A466 		.word	1722066546
 253 0114 4ACD303F 		.word	1060162890
 254 0118 891BB806 		.word	112728969
 255 011c E4394C3F 		.word	1061960164
 256 0120 96800C2C 		.word	739016854
 257 0124 558E863E 		.word	1049005653
 258 0128 66666666 		.word	1717986918
 259 012c 66127140 		.word	1081152102
 260 0130 00000840 		.word	1074266112
 261 0134 0000F03F 		.word	1072693248
 262 0138 00005940 		.word	1079574528
 263 013c 0000E03F 		.word	1071644672
 264              		.cfi_endproc
 265              	.LFE1:
 266              		.size	Thermistor_GetTemperature, .-Thermistor_GetTemperature
 267              		.text
 268              	.Letext0:
 269              		.file 2 ".\\Generated_Source\\PSoC5\\cytypes.h"